
SmartHome.elf:     file format elf32-avr

Sections:
Idx Name          Size      VMA       LMA       File off  Algn
  0 .text         000002c6  00000000  00000000  00000074  2**1
                  CONTENTS, ALLOC, LOAD, READONLY, CODE
  1 .data         00000000  00800060  00800060  0000033a  2**0
                  CONTENTS, ALLOC, LOAD, DATA
  2 .bss          0000000a  00800060  00800060  0000033a  2**0
                  ALLOC
  3 .comment      00000030  00000000  00000000  0000033a  2**0
                  CONTENTS, READONLY
  4 .note.gnu.avr.deviceinfo 0000003c  00000000  00000000  0000036c  2**2
                  CONTENTS, READONLY
  5 .debug_aranges 000001b0  00000000  00000000  000003a8  2**0
                  CONTENTS, READONLY, DEBUGGING
  6 .debug_info   00000d3f  00000000  00000000  00000558  2**0
                  CONTENTS, READONLY, DEBUGGING
  7 .debug_abbrev 00000770  00000000  00000000  00001297  2**0
                  CONTENTS, READONLY, DEBUGGING
  8 .debug_line   000007a7  00000000  00000000  00001a07  2**0
                  CONTENTS, READONLY, DEBUGGING
  9 .debug_frame  000006fc  00000000  00000000  000021b0  2**2
                  CONTENTS, READONLY, DEBUGGING
 10 .debug_str    00000708  00000000  00000000  000028ac  2**0
                  CONTENTS, READONLY, DEBUGGING
 11 .debug_loc    00000e9b  00000000  00000000  00002fb4  2**0
                  CONTENTS, READONLY, DEBUGGING
 12 .debug_ranges 00000170  00000000  00000000  00003e4f  2**0
                  CONTENTS, READONLY, DEBUGGING

Disassembly of section .text:

00000000 <__vectors>:
   0:	0c 94 2a 00 	jmp	0x54	; 0x54 <__ctors_end>
   4:	0c 94 47 00 	jmp	0x8e	; 0x8e <__bad_interrupt>
   8:	0c 94 47 00 	jmp	0x8e	; 0x8e <__bad_interrupt>
   c:	0c 94 47 00 	jmp	0x8e	; 0x8e <__bad_interrupt>
  10:	0c 94 2a 01 	jmp	0x254	; 0x254 <__vector_4>
  14:	0c 94 f3 00 	jmp	0x1e6	; 0x1e6 <__vector_5>
  18:	0c 94 47 00 	jmp	0x8e	; 0x8e <__bad_interrupt>
  1c:	0c 94 47 00 	jmp	0x8e	; 0x8e <__bad_interrupt>
  20:	0c 94 47 00 	jmp	0x8e	; 0x8e <__bad_interrupt>
  24:	0c 94 bc 00 	jmp	0x178	; 0x178 <__vector_9>
  28:	0c 94 85 00 	jmp	0x10a	; 0x10a <__vector_10>
  2c:	0c 94 4e 00 	jmp	0x9c	; 0x9c <__vector_11>
  30:	0c 94 47 00 	jmp	0x8e	; 0x8e <__bad_interrupt>
  34:	0c 94 47 00 	jmp	0x8e	; 0x8e <__bad_interrupt>
  38:	0c 94 47 00 	jmp	0x8e	; 0x8e <__bad_interrupt>
  3c:	0c 94 47 00 	jmp	0x8e	; 0x8e <__bad_interrupt>
  40:	0c 94 47 00 	jmp	0x8e	; 0x8e <__bad_interrupt>
  44:	0c 94 47 00 	jmp	0x8e	; 0x8e <__bad_interrupt>
  48:	0c 94 47 00 	jmp	0x8e	; 0x8e <__bad_interrupt>
  4c:	0c 94 47 00 	jmp	0x8e	; 0x8e <__bad_interrupt>
  50:	0c 94 47 00 	jmp	0x8e	; 0x8e <__bad_interrupt>

00000054 <__ctors_end>:
  54:	11 24       	eor	r1, r1
  56:	1f be       	out	0x3f, r1	; 63
  58:	cf e5       	ldi	r28, 0x5F	; 95
  5a:	d8 e0       	ldi	r29, 0x08	; 8
  5c:	de bf       	out	0x3e, r29	; 62
  5e:	cd bf       	out	0x3d, r28	; 61

00000060 <__do_copy_data>:
  60:	10 e0       	ldi	r17, 0x00	; 0
  62:	a0 e6       	ldi	r26, 0x60	; 96
  64:	b0 e0       	ldi	r27, 0x00	; 0
  66:	e6 ec       	ldi	r30, 0xC6	; 198
  68:	f2 e0       	ldi	r31, 0x02	; 2
  6a:	02 c0       	rjmp	.+4      	; 0x70 <__do_copy_data+0x10>
  6c:	05 90       	lpm	r0, Z+
  6e:	0d 92       	st	X+, r0
  70:	a0 36       	cpi	r26, 0x60	; 96
  72:	b1 07       	cpc	r27, r17
  74:	d9 f7       	brne	.-10     	; 0x6c <__do_copy_data+0xc>

00000076 <__do_clear_bss>:
  76:	20 e0       	ldi	r18, 0x00	; 0
  78:	a0 e6       	ldi	r26, 0x60	; 96
  7a:	b0 e0       	ldi	r27, 0x00	; 0
  7c:	01 c0       	rjmp	.+2      	; 0x80 <.do_clear_bss_start>

0000007e <.do_clear_bss_loop>:
  7e:	1d 92       	st	X+, r1

00000080 <.do_clear_bss_start>:
  80:	aa 36       	cpi	r26, 0x6A	; 106
  82:	b2 07       	cpc	r27, r18
  84:	e1 f7       	brne	.-8      	; 0x7e <.do_clear_bss_loop>
  86:	0e 94 49 00 	call	0x92	; 0x92 <main>
  8a:	0c 94 61 01 	jmp	0x2c2	; 0x2c2 <_exit>

0000008e <__bad_interrupt>:
  8e:	0c 94 00 00 	jmp	0	; 0x0 <__vectors>

00000092 <main>:
#include "std_types.h"
#include "bit_math.h"
#include "dio.h"

int main(void)
{
  92:	cf 93       	push	r28
  94:	df 93       	push	r29
  96:	cd b7       	in	r28, 0x3d	; 61
  98:	de b7       	in	r29, 0x3e	; 62
    /* Replace with your application code */
    while (1) 
    {
    }
  9a:	ff cf       	rjmp	.-2      	; 0x9a <main+0x8>

0000009c <__vector_11>:
}

void timer0_setCTCCallBack(void (*fptr) (void))
{
	timer0CTCClbkPtr = fptr;
}
  9c:	1f 92       	push	r1
  9e:	0f 92       	push	r0
  a0:	00 90 5f 00 	lds	r0, 0x005F	; 0x80005f <__TEXT_REGION_LENGTH__+0x7f805f>
  a4:	0f 92       	push	r0
  a6:	11 24       	eor	r1, r1
  a8:	2f 93       	push	r18
  aa:	3f 93       	push	r19
  ac:	4f 93       	push	r20
  ae:	5f 93       	push	r21
  b0:	6f 93       	push	r22
  b2:	7f 93       	push	r23
  b4:	8f 93       	push	r24
  b6:	9f 93       	push	r25
  b8:	af 93       	push	r26
  ba:	bf 93       	push	r27
  bc:	ef 93       	push	r30
  be:	ff 93       	push	r31
  c0:	cf 93       	push	r28
  c2:	df 93       	push	r29
  c4:	cd b7       	in	r28, 0x3d	; 61
  c6:	de b7       	in	r29, 0x3e	; 62
  c8:	80 91 60 00 	lds	r24, 0x0060	; 0x800060 <__DATA_REGION_ORIGIN__>
  cc:	90 91 61 00 	lds	r25, 0x0061	; 0x800061 <__DATA_REGION_ORIGIN__+0x1>
  d0:	89 2b       	or	r24, r25
  d2:	31 f0       	breq	.+12     	; 0xe0 <__vector_11+0x44>
  d4:	80 91 60 00 	lds	r24, 0x0060	; 0x800060 <__DATA_REGION_ORIGIN__>
  d8:	90 91 61 00 	lds	r25, 0x0061	; 0x800061 <__DATA_REGION_ORIGIN__+0x1>
  dc:	fc 01       	movw	r30, r24
  de:	09 95       	icall
  e0:	00 00       	nop
  e2:	df 91       	pop	r29
  e4:	cf 91       	pop	r28
  e6:	ff 91       	pop	r31
  e8:	ef 91       	pop	r30
  ea:	bf 91       	pop	r27
  ec:	af 91       	pop	r26
  ee:	9f 91       	pop	r25
  f0:	8f 91       	pop	r24
  f2:	7f 91       	pop	r23
  f4:	6f 91       	pop	r22
  f6:	5f 91       	pop	r21
  f8:	4f 91       	pop	r20
  fa:	3f 91       	pop	r19
  fc:	2f 91       	pop	r18
  fe:	0f 90       	pop	r0
 100:	00 92 5f 00 	sts	0x005F, r0	; 0x80005f <__TEXT_REGION_LENGTH__+0x7f805f>
 104:	0f 90       	pop	r0
 106:	1f 90       	pop	r1
 108:	18 95       	reti

0000010a <__vector_10>:

ISR(TIMER0_COMP_vect)
{
 10a:	1f 92       	push	r1
 10c:	0f 92       	push	r0
 10e:	00 90 5f 00 	lds	r0, 0x005F	; 0x80005f <__TEXT_REGION_LENGTH__+0x7f805f>
 112:	0f 92       	push	r0
 114:	11 24       	eor	r1, r1
 116:	2f 93       	push	r18
 118:	3f 93       	push	r19
 11a:	4f 93       	push	r20
 11c:	5f 93       	push	r21
 11e:	6f 93       	push	r22
 120:	7f 93       	push	r23
 122:	8f 93       	push	r24
 124:	9f 93       	push	r25
 126:	af 93       	push	r26
 128:	bf 93       	push	r27
 12a:	ef 93       	push	r30
 12c:	ff 93       	push	r31
 12e:	cf 93       	push	r28
 130:	df 93       	push	r29
 132:	cd b7       	in	r28, 0x3d	; 61
 134:	de b7       	in	r29, 0x3e	; 62
	if (timer0CTCClbkPtr != NULL)
 136:	80 91 62 00 	lds	r24, 0x0062	; 0x800062 <timer0CTCClbkPtr>
 13a:	90 91 63 00 	lds	r25, 0x0063	; 0x800063 <timer0CTCClbkPtr+0x1>
 13e:	89 2b       	or	r24, r25
 140:	31 f0       	breq	.+12     	; 0x14e <__vector_10+0x44>
	{
		timer0CTCClbkPtr();
 142:	80 91 62 00 	lds	r24, 0x0062	; 0x800062 <timer0CTCClbkPtr>
 146:	90 91 63 00 	lds	r25, 0x0063	; 0x800063 <timer0CTCClbkPtr+0x1>
 14a:	fc 01       	movw	r30, r24
 14c:	09 95       	icall
	}
}
 14e:	00 00       	nop
 150:	df 91       	pop	r29
 152:	cf 91       	pop	r28
 154:	ff 91       	pop	r31
 156:	ef 91       	pop	r30
 158:	bf 91       	pop	r27
 15a:	af 91       	pop	r26
 15c:	9f 91       	pop	r25
 15e:	8f 91       	pop	r24
 160:	7f 91       	pop	r23
 162:	6f 91       	pop	r22
 164:	5f 91       	pop	r21
 166:	4f 91       	pop	r20
 168:	3f 91       	pop	r19
 16a:	2f 91       	pop	r18
 16c:	0f 90       	pop	r0
 16e:	00 92 5f 00 	sts	0x005F, r0	; 0x80005f <__TEXT_REGION_LENGTH__+0x7f805f>
 172:	0f 90       	pop	r0
 174:	1f 90       	pop	r1
 176:	18 95       	reti

00000178 <__vector_9>:
{
	timer1OvClbkPtr = fptr;
}

ISR(TIMER1_OVF_vect)
{
 178:	1f 92       	push	r1
 17a:	0f 92       	push	r0
 17c:	00 90 5f 00 	lds	r0, 0x005F	; 0x80005f <__TEXT_REGION_LENGTH__+0x7f805f>
 180:	0f 92       	push	r0
 182:	11 24       	eor	r1, r1
 184:	2f 93       	push	r18
 186:	3f 93       	push	r19
 188:	4f 93       	push	r20
 18a:	5f 93       	push	r21
 18c:	6f 93       	push	r22
 18e:	7f 93       	push	r23
 190:	8f 93       	push	r24
 192:	9f 93       	push	r25
 194:	af 93       	push	r26
 196:	bf 93       	push	r27
 198:	ef 93       	push	r30
 19a:	ff 93       	push	r31
 19c:	cf 93       	push	r28
 19e:	df 93       	push	r29
 1a0:	cd b7       	in	r28, 0x3d	; 61
 1a2:	de b7       	in	r29, 0x3e	; 62
	if (timer1OvClbkPtr != NULL)
 1a4:	80 91 64 00 	lds	r24, 0x0064	; 0x800064 <timer1OvClbkPtr>
 1a8:	90 91 65 00 	lds	r25, 0x0065	; 0x800065 <timer1OvClbkPtr+0x1>
 1ac:	89 2b       	or	r24, r25
 1ae:	31 f0       	breq	.+12     	; 0x1bc <__vector_9+0x44>
	{
		timer1OvClbkPtr();
 1b0:	80 91 64 00 	lds	r24, 0x0064	; 0x800064 <timer1OvClbkPtr>
 1b4:	90 91 65 00 	lds	r25, 0x0065	; 0x800065 <timer1OvClbkPtr+0x1>
 1b8:	fc 01       	movw	r30, r24
 1ba:	09 95       	icall
	}
}
 1bc:	00 00       	nop
 1be:	df 91       	pop	r29
 1c0:	cf 91       	pop	r28
 1c2:	ff 91       	pop	r31
 1c4:	ef 91       	pop	r30
 1c6:	bf 91       	pop	r27
 1c8:	af 91       	pop	r26
 1ca:	9f 91       	pop	r25
 1cc:	8f 91       	pop	r24
 1ce:	7f 91       	pop	r23
 1d0:	6f 91       	pop	r22
 1d2:	5f 91       	pop	r21
 1d4:	4f 91       	pop	r20
 1d6:	3f 91       	pop	r19
 1d8:	2f 91       	pop	r18
 1da:	0f 90       	pop	r0
 1dc:	00 92 5f 00 	sts	0x005F, r0	; 0x80005f <__TEXT_REGION_LENGTH__+0x7f805f>
 1e0:	0f 90       	pop	r0
 1e2:	1f 90       	pop	r1
 1e4:	18 95       	reti

000001e6 <__vector_5>:
}

void timer2_setCTCCallBack(void (*fptr) (void))
{
	timer2CTCClbkPtr = fptr;
}
 1e6:	1f 92       	push	r1
 1e8:	0f 92       	push	r0
 1ea:	00 90 5f 00 	lds	r0, 0x005F	; 0x80005f <__TEXT_REGION_LENGTH__+0x7f805f>
 1ee:	0f 92       	push	r0
 1f0:	11 24       	eor	r1, r1
 1f2:	2f 93       	push	r18
 1f4:	3f 93       	push	r19
 1f6:	4f 93       	push	r20
 1f8:	5f 93       	push	r21
 1fa:	6f 93       	push	r22
 1fc:	7f 93       	push	r23
 1fe:	8f 93       	push	r24
 200:	9f 93       	push	r25
 202:	af 93       	push	r26
 204:	bf 93       	push	r27
 206:	ef 93       	push	r30
 208:	ff 93       	push	r31
 20a:	cf 93       	push	r28
 20c:	df 93       	push	r29
 20e:	cd b7       	in	r28, 0x3d	; 61
 210:	de b7       	in	r29, 0x3e	; 62
 212:	80 91 66 00 	lds	r24, 0x0066	; 0x800066 <timer2OvClbkPtr>
 216:	90 91 67 00 	lds	r25, 0x0067	; 0x800067 <timer2OvClbkPtr+0x1>
 21a:	89 2b       	or	r24, r25
 21c:	31 f0       	breq	.+12     	; 0x22a <__vector_5+0x44>
 21e:	80 91 66 00 	lds	r24, 0x0066	; 0x800066 <timer2OvClbkPtr>
 222:	90 91 67 00 	lds	r25, 0x0067	; 0x800067 <timer2OvClbkPtr+0x1>
 226:	fc 01       	movw	r30, r24
 228:	09 95       	icall
 22a:	00 00       	nop
 22c:	df 91       	pop	r29
 22e:	cf 91       	pop	r28
 230:	ff 91       	pop	r31
 232:	ef 91       	pop	r30
 234:	bf 91       	pop	r27
 236:	af 91       	pop	r26
 238:	9f 91       	pop	r25
 23a:	8f 91       	pop	r24
 23c:	7f 91       	pop	r23
 23e:	6f 91       	pop	r22
 240:	5f 91       	pop	r21
 242:	4f 91       	pop	r20
 244:	3f 91       	pop	r19
 246:	2f 91       	pop	r18
 248:	0f 90       	pop	r0
 24a:	00 92 5f 00 	sts	0x005F, r0	; 0x80005f <__TEXT_REGION_LENGTH__+0x7f805f>
 24e:	0f 90       	pop	r0
 250:	1f 90       	pop	r1
 252:	18 95       	reti

00000254 <__vector_4>:

ISR(TIMER2_COMP_vect)
{
 254:	1f 92       	push	r1
 256:	0f 92       	push	r0
 258:	00 90 5f 00 	lds	r0, 0x005F	; 0x80005f <__TEXT_REGION_LENGTH__+0x7f805f>
 25c:	0f 92       	push	r0
 25e:	11 24       	eor	r1, r1
 260:	2f 93       	push	r18
 262:	3f 93       	push	r19
 264:	4f 93       	push	r20
 266:	5f 93       	push	r21
 268:	6f 93       	push	r22
 26a:	7f 93       	push	r23
 26c:	8f 93       	push	r24
 26e:	9f 93       	push	r25
 270:	af 93       	push	r26
 272:	bf 93       	push	r27
 274:	ef 93       	push	r30
 276:	ff 93       	push	r31
 278:	cf 93       	push	r28
 27a:	df 93       	push	r29
 27c:	cd b7       	in	r28, 0x3d	; 61
 27e:	de b7       	in	r29, 0x3e	; 62
	if (timer2CTCClbkPtr != NULL)
 280:	80 91 68 00 	lds	r24, 0x0068	; 0x800068 <timer2CTCClbkPtr>
 284:	90 91 69 00 	lds	r25, 0x0069	; 0x800069 <timer2CTCClbkPtr+0x1>
 288:	89 2b       	or	r24, r25
 28a:	31 f0       	breq	.+12     	; 0x298 <__vector_4+0x44>
	{
		timer2CTCClbkPtr();
 28c:	80 91 68 00 	lds	r24, 0x0068	; 0x800068 <timer2CTCClbkPtr>
 290:	90 91 69 00 	lds	r25, 0x0069	; 0x800069 <timer2CTCClbkPtr+0x1>
 294:	fc 01       	movw	r30, r24
 296:	09 95       	icall
	}
}
 298:	00 00       	nop
 29a:	df 91       	pop	r29
 29c:	cf 91       	pop	r28
 29e:	ff 91       	pop	r31
 2a0:	ef 91       	pop	r30
 2a2:	bf 91       	pop	r27
 2a4:	af 91       	pop	r26
 2a6:	9f 91       	pop	r25
 2a8:	8f 91       	pop	r24
 2aa:	7f 91       	pop	r23
 2ac:	6f 91       	pop	r22
 2ae:	5f 91       	pop	r21
 2b0:	4f 91       	pop	r20
 2b2:	3f 91       	pop	r19
 2b4:	2f 91       	pop	r18
 2b6:	0f 90       	pop	r0
 2b8:	00 92 5f 00 	sts	0x005F, r0	; 0x80005f <__TEXT_REGION_LENGTH__+0x7f805f>
 2bc:	0f 90       	pop	r0
 2be:	1f 90       	pop	r1
 2c0:	18 95       	reti

000002c2 <_exit>:
 2c2:	f8 94       	cli

000002c4 <__stop_program>:
 2c4:	ff cf       	rjmp	.-2      	; 0x2c4 <__stop_program>
