
SmartHome.elf:     file format elf32-avr

Sections:
Idx Name          Size      VMA       LMA       File off  Algn
  0 .text         000015d2  00000000  00000000  00000094  2**1
                  CONTENTS, ALLOC, LOAD, READONLY, CODE
  1 .data         000002a6  00800060  000015d2  00001666  2**0
                  CONTENTS, ALLOC, LOAD, DATA
  2 .bss          00000119  00800306  00800306  0000190c  2**0
                  ALLOC
  3 .comment      0000005c  00000000  00000000  0000190c  2**0
                  CONTENTS, READONLY
  4 .note.gnu.avr.deviceinfo 0000003c  00000000  00000000  00001968  2**2
                  CONTENTS, READONLY
  5 .debug_aranges 00000538  00000000  00000000  000019a4  2**0
                  CONTENTS, READONLY, DEBUGGING
  6 .debug_info   00004298  00000000  00000000  00001edc  2**0
                  CONTENTS, READONLY, DEBUGGING
  7 .debug_abbrev 00001855  00000000  00000000  00006174  2**0
                  CONTENTS, READONLY, DEBUGGING
  8 .debug_line   00002476  00000000  00000000  000079c9  2**0
                  CONTENTS, READONLY, DEBUGGING
  9 .debug_frame  00000c7c  00000000  00000000  00009e40  2**2
                  CONTENTS, READONLY, DEBUGGING
 10 .debug_str    000011e3  00000000  00000000  0000aabc  2**0
                  CONTENTS, READONLY, DEBUGGING
 11 .debug_loc    0000224f  00000000  00000000  0000bc9f  2**0
                  CONTENTS, READONLY, DEBUGGING
 12 .debug_ranges 00000440  00000000  00000000  0000deee  2**0
                  CONTENTS, READONLY, DEBUGGING

Disassembly of section .text:

00000000 <__vectors>:
       0:	0c 94 2a 00 	jmp	0x54	; 0x54 <__ctors_end>
       4:	0c 94 47 00 	jmp	0x8e	; 0x8e <__bad_interrupt>
       8:	0c 94 47 00 	jmp	0x8e	; 0x8e <__bad_interrupt>
       c:	0c 94 47 00 	jmp	0x8e	; 0x8e <__bad_interrupt>
      10:	0c 94 b0 03 	jmp	0x760	; 0x760 <__vector_4>
      14:	0c 94 87 03 	jmp	0x70e	; 0x70e <__vector_5>
      18:	0c 94 47 00 	jmp	0x8e	; 0x8e <__bad_interrupt>
      1c:	0c 94 47 00 	jmp	0x8e	; 0x8e <__bad_interrupt>
      20:	0c 94 47 00 	jmp	0x8e	; 0x8e <__bad_interrupt>
      24:	0c 94 5a 03 	jmp	0x6b4	; 0x6b4 <__vector_9>
      28:	0c 94 31 03 	jmp	0x662	; 0x662 <__vector_10>
      2c:	0c 94 08 03 	jmp	0x610	; 0x610 <__vector_11>
      30:	0c 94 47 00 	jmp	0x8e	; 0x8e <__bad_interrupt>
      34:	0c 94 47 00 	jmp	0x8e	; 0x8e <__bad_interrupt>
      38:	0c 94 47 00 	jmp	0x8e	; 0x8e <__bad_interrupt>
      3c:	0c 94 47 00 	jmp	0x8e	; 0x8e <__bad_interrupt>
      40:	0c 94 47 00 	jmp	0x8e	; 0x8e <__bad_interrupt>
      44:	0c 94 47 00 	jmp	0x8e	; 0x8e <__bad_interrupt>
      48:	0c 94 47 00 	jmp	0x8e	; 0x8e <__bad_interrupt>
      4c:	0c 94 47 00 	jmp	0x8e	; 0x8e <__bad_interrupt>
      50:	0c 94 47 00 	jmp	0x8e	; 0x8e <__bad_interrupt>

00000054 <__ctors_end>:
      54:	11 24       	eor	r1, r1
      56:	1f be       	out	0x3f, r1	; 63
      58:	cf e5       	ldi	r28, 0x5F	; 95
      5a:	d8 e0       	ldi	r29, 0x08	; 8
      5c:	de bf       	out	0x3e, r29	; 62
      5e:	cd bf       	out	0x3d, r28	; 61

00000060 <__do_copy_data>:
      60:	13 e0       	ldi	r17, 0x03	; 3
      62:	a0 e6       	ldi	r26, 0x60	; 96
      64:	b0 e0       	ldi	r27, 0x00	; 0
      66:	e2 ed       	ldi	r30, 0xD2	; 210
      68:	f5 e1       	ldi	r31, 0x15	; 21
      6a:	02 c0       	rjmp	.+4      	; 0x70 <__do_copy_data+0x10>
      6c:	05 90       	lpm	r0, Z+
      6e:	0d 92       	st	X+, r0
      70:	a6 30       	cpi	r26, 0x06	; 6
      72:	b1 07       	cpc	r27, r17
      74:	d9 f7       	brne	.-10     	; 0x6c <__do_copy_data+0xc>

00000076 <__do_clear_bss>:
      76:	24 e0       	ldi	r18, 0x04	; 4
      78:	a6 e0       	ldi	r26, 0x06	; 6
      7a:	b3 e0       	ldi	r27, 0x03	; 3
      7c:	01 c0       	rjmp	.+2      	; 0x80 <.do_clear_bss_start>

0000007e <.do_clear_bss_loop>:
      7e:	1d 92       	st	X+, r1

00000080 <.do_clear_bss_start>:
      80:	af 31       	cpi	r26, 0x1F	; 31
      82:	b2 07       	cpc	r27, r18
      84:	e1 f7       	brne	.-8      	; 0x7e <.do_clear_bss_loop>
      86:	0e 94 49 00 	call	0x92	; 0x92 <main>
      8a:	0c 94 e7 0a 	jmp	0x15ce	; 0x15ce <_exit>

0000008e <__bad_interrupt>:
      8e:	0c 94 00 00 	jmp	0	; 0x0 <__vectors>

00000092 <main>:
      92:	0e 94 12 01 	call	0x224	; 0x224 <lcd_init>
      96:	87 e6       	ldi	r24, 0x67	; 103
      98:	90 e0       	ldi	r25, 0x00	; 0
      9a:	0e 94 d9 03 	call	0x7b2	; 0x7b2 <uart_init>
      9e:	0e 94 31 05 	call	0xa62	; 0xa62 <remoteDB_init>
      a2:	0e 94 c7 07 	call	0xf8e	; 0xf8e <remote_menu_Service>
	#else
		//round up by default
		__ticks_dc = (uint32_t)(ceil(fabs(__tmp)));
	#endif

	__builtin_avr_delay_cycles(__ticks_dc);
      a6:	2f ef       	ldi	r18, 0xFF	; 255
      a8:	83 ed       	ldi	r24, 0xD3	; 211
      aa:	90 e3       	ldi	r25, 0x30	; 48
      ac:	21 50       	subi	r18, 0x01	; 1
      ae:	80 40       	sbci	r24, 0x00	; 0
      b0:	90 40       	sbci	r25, 0x00	; 0
      b2:	e1 f7       	brne	.-8      	; 0xac <main+0x1a>
      b4:	00 c0       	rjmp	.+0      	; 0xb6 <main+0x24>
      b6:	00 00       	nop
      b8:	f4 cf       	rjmp	.-24     	; 0xa2 <main+0x10>

000000ba <lamp_toggle>:
      ba:	cf 93       	push	r28
      bc:	c8 2f       	mov	r28, r24
      be:	0e 94 74 01 	call	0x2e8	; 0x2e8 <relay_toggle>
      c2:	ec 2f       	mov	r30, r28
      c4:	f0 e0       	ldi	r31, 0x00	; 0
      c6:	ea 5f       	subi	r30, 0xFA	; 250
      c8:	fc 4f       	sbci	r31, 0xFC	; 252
      ca:	90 81       	ld	r25, Z
      cc:	81 e0       	ldi	r24, 0x01	; 1
      ce:	89 27       	eor	r24, r25
      d0:	80 83       	st	Z, r24
      d2:	cf 91       	pop	r28
      d4:	08 95       	ret

000000d6 <enablePulse>:
      d6:	8f e9       	ldi	r24, 0x9F	; 159
      d8:	9f e0       	ldi	r25, 0x0F	; 15
      da:	01 97       	sbiw	r24, 0x01	; 1
      dc:	f1 f7       	brne	.-4      	; 0xda <enablePulse+0x4>
      de:	00 c0       	rjmp	.+0      	; 0xe0 <enablePulse+0xa>
      e0:	00 00       	nop
      e2:	41 e0       	ldi	r20, 0x01	; 1
      e4:	64 e0       	ldi	r22, 0x04	; 4
      e6:	82 e0       	ldi	r24, 0x02	; 2
      e8:	0e 94 12 02 	call	0x424	; 0x424 <dio_writeChannel>
      ec:	8f e9       	ldi	r24, 0x9F	; 159
      ee:	9f e0       	ldi	r25, 0x0F	; 15
      f0:	01 97       	sbiw	r24, 0x01	; 1
      f2:	f1 f7       	brne	.-4      	; 0xf0 <enablePulse+0x1a>
      f4:	00 c0       	rjmp	.+0      	; 0xf6 <enablePulse+0x20>
      f6:	00 00       	nop
      f8:	40 e0       	ldi	r20, 0x00	; 0
      fa:	64 e0       	ldi	r22, 0x04	; 4
      fc:	82 e0       	ldi	r24, 0x02	; 2
      fe:	0e 94 12 02 	call	0x424	; 0x424 <dio_writeChannel>
     102:	8f e9       	ldi	r24, 0x9F	; 159
     104:	9f e0       	ldi	r25, 0x0F	; 15
     106:	01 97       	sbiw	r24, 0x01	; 1
     108:	f1 f7       	brne	.-4      	; 0x106 <enablePulse+0x30>
     10a:	00 c0       	rjmp	.+0      	; 0x10c <enablePulse+0x36>
     10c:	00 00       	nop
     10e:	08 95       	ret

00000110 <lcd_sendCommand>:
     110:	cf 93       	push	r28
     112:	c8 2f       	mov	r28, r24
     114:	40 e0       	ldi	r20, 0x00	; 0
     116:	66 e0       	ldi	r22, 0x06	; 6
     118:	82 e0       	ldi	r24, 0x02	; 2
     11a:	0e 94 12 02 	call	0x424	; 0x424 <dio_writeChannel>
     11e:	c4 fb       	bst	r28, 4
     120:	44 27       	eor	r20, r20
     122:	40 f9       	bld	r20, 0
     124:	60 e0       	ldi	r22, 0x00	; 0
     126:	82 e0       	ldi	r24, 0x02	; 2
     128:	0e 94 12 02 	call	0x424	; 0x424 <dio_writeChannel>
     12c:	c5 fb       	bst	r28, 5
     12e:	44 27       	eor	r20, r20
     130:	40 f9       	bld	r20, 0
     132:	61 e0       	ldi	r22, 0x01	; 1
     134:	82 e0       	ldi	r24, 0x02	; 2
     136:	0e 94 12 02 	call	0x424	; 0x424 <dio_writeChannel>
     13a:	c6 fb       	bst	r28, 6
     13c:	44 27       	eor	r20, r20
     13e:	40 f9       	bld	r20, 0
     140:	62 e0       	ldi	r22, 0x02	; 2
     142:	82 e0       	ldi	r24, 0x02	; 2
     144:	0e 94 12 02 	call	0x424	; 0x424 <dio_writeChannel>
     148:	4c 2f       	mov	r20, r28
     14a:	44 1f       	adc	r20, r20
     14c:	44 27       	eor	r20, r20
     14e:	44 1f       	adc	r20, r20
     150:	63 e0       	ldi	r22, 0x03	; 3
     152:	82 e0       	ldi	r24, 0x02	; 2
     154:	0e 94 12 02 	call	0x424	; 0x424 <dio_writeChannel>
     158:	0e 94 6b 00 	call	0xd6	; 0xd6 <enablePulse>
     15c:	4c 2f       	mov	r20, r28
     15e:	41 70       	andi	r20, 0x01	; 1
     160:	60 e0       	ldi	r22, 0x00	; 0
     162:	82 e0       	ldi	r24, 0x02	; 2
     164:	0e 94 12 02 	call	0x424	; 0x424 <dio_writeChannel>
     168:	c1 fb       	bst	r28, 1
     16a:	44 27       	eor	r20, r20
     16c:	40 f9       	bld	r20, 0
     16e:	61 e0       	ldi	r22, 0x01	; 1
     170:	82 e0       	ldi	r24, 0x02	; 2
     172:	0e 94 12 02 	call	0x424	; 0x424 <dio_writeChannel>
     176:	c2 fb       	bst	r28, 2
     178:	44 27       	eor	r20, r20
     17a:	40 f9       	bld	r20, 0
     17c:	62 e0       	ldi	r22, 0x02	; 2
     17e:	82 e0       	ldi	r24, 0x02	; 2
     180:	0e 94 12 02 	call	0x424	; 0x424 <dio_writeChannel>
     184:	c3 fb       	bst	r28, 3
     186:	44 27       	eor	r20, r20
     188:	40 f9       	bld	r20, 0
     18a:	63 e0       	ldi	r22, 0x03	; 3
     18c:	82 e0       	ldi	r24, 0x02	; 2
     18e:	0e 94 12 02 	call	0x424	; 0x424 <dio_writeChannel>
     192:	0e 94 6b 00 	call	0xd6	; 0xd6 <enablePulse>
     196:	cf 91       	pop	r28
     198:	08 95       	ret

0000019a <lcd_writeData>:
     19a:	cf 93       	push	r28
     19c:	c8 2f       	mov	r28, r24
     19e:	41 e0       	ldi	r20, 0x01	; 1
     1a0:	66 e0       	ldi	r22, 0x06	; 6
     1a2:	82 e0       	ldi	r24, 0x02	; 2
     1a4:	0e 94 12 02 	call	0x424	; 0x424 <dio_writeChannel>
     1a8:	c4 fb       	bst	r28, 4
     1aa:	44 27       	eor	r20, r20
     1ac:	40 f9       	bld	r20, 0
     1ae:	60 e0       	ldi	r22, 0x00	; 0
     1b0:	82 e0       	ldi	r24, 0x02	; 2
     1b2:	0e 94 12 02 	call	0x424	; 0x424 <dio_writeChannel>
     1b6:	c5 fb       	bst	r28, 5
     1b8:	44 27       	eor	r20, r20
     1ba:	40 f9       	bld	r20, 0
     1bc:	61 e0       	ldi	r22, 0x01	; 1
     1be:	82 e0       	ldi	r24, 0x02	; 2
     1c0:	0e 94 12 02 	call	0x424	; 0x424 <dio_writeChannel>
     1c4:	c6 fb       	bst	r28, 6
     1c6:	44 27       	eor	r20, r20
     1c8:	40 f9       	bld	r20, 0
     1ca:	62 e0       	ldi	r22, 0x02	; 2
     1cc:	82 e0       	ldi	r24, 0x02	; 2
     1ce:	0e 94 12 02 	call	0x424	; 0x424 <dio_writeChannel>
     1d2:	4c 2f       	mov	r20, r28
     1d4:	44 1f       	adc	r20, r20
     1d6:	44 27       	eor	r20, r20
     1d8:	44 1f       	adc	r20, r20
     1da:	63 e0       	ldi	r22, 0x03	; 3
     1dc:	82 e0       	ldi	r24, 0x02	; 2
     1de:	0e 94 12 02 	call	0x424	; 0x424 <dio_writeChannel>
     1e2:	0e 94 6b 00 	call	0xd6	; 0xd6 <enablePulse>
     1e6:	4c 2f       	mov	r20, r28
     1e8:	41 70       	andi	r20, 0x01	; 1
     1ea:	60 e0       	ldi	r22, 0x00	; 0
     1ec:	82 e0       	ldi	r24, 0x02	; 2
     1ee:	0e 94 12 02 	call	0x424	; 0x424 <dio_writeChannel>
     1f2:	c1 fb       	bst	r28, 1
     1f4:	44 27       	eor	r20, r20
     1f6:	40 f9       	bld	r20, 0
     1f8:	61 e0       	ldi	r22, 0x01	; 1
     1fa:	82 e0       	ldi	r24, 0x02	; 2
     1fc:	0e 94 12 02 	call	0x424	; 0x424 <dio_writeChannel>
     200:	c2 fb       	bst	r28, 2
     202:	44 27       	eor	r20, r20
     204:	40 f9       	bld	r20, 0
     206:	62 e0       	ldi	r22, 0x02	; 2
     208:	82 e0       	ldi	r24, 0x02	; 2
     20a:	0e 94 12 02 	call	0x424	; 0x424 <dio_writeChannel>
     20e:	c3 fb       	bst	r28, 3
     210:	44 27       	eor	r20, r20
     212:	40 f9       	bld	r20, 0
     214:	63 e0       	ldi	r22, 0x03	; 3
     216:	82 e0       	ldi	r24, 0x02	; 2
     218:	0e 94 12 02 	call	0x424	; 0x424 <dio_writeChannel>
     21c:	0e 94 6b 00 	call	0xd6	; 0xd6 <enablePulse>
     220:	cf 91       	pop	r28
     222:	08 95       	ret

00000224 <lcd_init>:
     224:	41 e0       	ldi	r20, 0x01	; 1
     226:	66 e0       	ldi	r22, 0x06	; 6
     228:	82 e0       	ldi	r24, 0x02	; 2
     22a:	0e 94 9d 01 	call	0x33a	; 0x33a <dio_setPinDirection>
     22e:	41 e0       	ldi	r20, 0x01	; 1
     230:	65 e0       	ldi	r22, 0x05	; 5
     232:	82 e0       	ldi	r24, 0x02	; 2
     234:	0e 94 9d 01 	call	0x33a	; 0x33a <dio_setPinDirection>
     238:	41 e0       	ldi	r20, 0x01	; 1
     23a:	64 e0       	ldi	r22, 0x04	; 4
     23c:	82 e0       	ldi	r24, 0x02	; 2
     23e:	0e 94 9d 01 	call	0x33a	; 0x33a <dio_setPinDirection>
     242:	41 e0       	ldi	r20, 0x01	; 1
     244:	60 e0       	ldi	r22, 0x00	; 0
     246:	82 e0       	ldi	r24, 0x02	; 2
     248:	0e 94 9d 01 	call	0x33a	; 0x33a <dio_setPinDirection>
     24c:	41 e0       	ldi	r20, 0x01	; 1
     24e:	61 e0       	ldi	r22, 0x01	; 1
     250:	82 e0       	ldi	r24, 0x02	; 2
     252:	0e 94 9d 01 	call	0x33a	; 0x33a <dio_setPinDirection>
     256:	41 e0       	ldi	r20, 0x01	; 1
     258:	62 e0       	ldi	r22, 0x02	; 2
     25a:	82 e0       	ldi	r24, 0x02	; 2
     25c:	0e 94 9d 01 	call	0x33a	; 0x33a <dio_setPinDirection>
     260:	41 e0       	ldi	r20, 0x01	; 1
     262:	63 e0       	ldi	r22, 0x03	; 3
     264:	82 e0       	ldi	r24, 0x02	; 2
     266:	0e 94 9d 01 	call	0x33a	; 0x33a <dio_setPinDirection>
     26a:	40 e0       	ldi	r20, 0x00	; 0
     26c:	65 e0       	ldi	r22, 0x05	; 5
     26e:	82 e0       	ldi	r24, 0x02	; 2
     270:	0e 94 12 02 	call	0x424	; 0x424 <dio_writeChannel>
     274:	80 e0       	ldi	r24, 0x00	; 0
     276:	0e 94 cd 00 	call	0x19a	; 0x19a <lcd_writeData>
     27a:	2f ef       	ldi	r18, 0xFF	; 255
     27c:	86 e7       	ldi	r24, 0x76	; 118
     27e:	91 e0       	ldi	r25, 0x01	; 1
     280:	21 50       	subi	r18, 0x01	; 1
     282:	80 40       	sbci	r24, 0x00	; 0
     284:	90 40       	sbci	r25, 0x00	; 0
     286:	e1 f7       	brne	.-8      	; 0x280 <lcd_init+0x5c>
     288:	00 c0       	rjmp	.+0      	; 0x28a <lcd_init+0x66>
     28a:	00 00       	nop
     28c:	83 e0       	ldi	r24, 0x03	; 3
     28e:	0e 94 88 00 	call	0x110	; 0x110 <lcd_sendCommand>
     292:	8f e1       	ldi	r24, 0x1F	; 31
     294:	9e e4       	ldi	r25, 0x4E	; 78
     296:	01 97       	sbiw	r24, 0x01	; 1
     298:	f1 f7       	brne	.-4      	; 0x296 <lcd_init+0x72>
     29a:	00 c0       	rjmp	.+0      	; 0x29c <lcd_init+0x78>
     29c:	00 00       	nop
     29e:	83 e0       	ldi	r24, 0x03	; 3
     2a0:	0e 94 88 00 	call	0x110	; 0x110 <lcd_sendCommand>
	#else
		//round up by default
		__ticks_dc = (uint32_t)(ceil(fabs(__tmp)));
	#endif

	__builtin_avr_delay_cycles(__ticks_dc);
     2a4:	87 e5       	ldi	r24, 0x57	; 87
     2a6:	92 e0       	ldi	r25, 0x02	; 2
     2a8:	01 97       	sbiw	r24, 0x01	; 1
     2aa:	f1 f7       	brne	.-4      	; 0x2a8 <lcd_init+0x84>
     2ac:	00 c0       	rjmp	.+0      	; 0x2ae <lcd_init+0x8a>
     2ae:	00 00       	nop
     2b0:	83 e0       	ldi	r24, 0x03	; 3
     2b2:	0e 94 88 00 	call	0x110	; 0x110 <lcd_sendCommand>
     2b6:	82 e0       	ldi	r24, 0x02	; 2
     2b8:	0e 94 88 00 	call	0x110	; 0x110 <lcd_sendCommand>
     2bc:	82 e0       	ldi	r24, 0x02	; 2
     2be:	0e 94 88 00 	call	0x110	; 0x110 <lcd_sendCommand>
     2c2:	88 e2       	ldi	r24, 0x28	; 40
     2c4:	0e 94 88 00 	call	0x110	; 0x110 <lcd_sendCommand>
     2c8:	88 e0       	ldi	r24, 0x08	; 8
     2ca:	0e 94 88 00 	call	0x110	; 0x110 <lcd_sendCommand>
     2ce:	80 e0       	ldi	r24, 0x00	; 0
     2d0:	0e 94 88 00 	call	0x110	; 0x110 <lcd_sendCommand>
     2d4:	8c e0       	ldi	r24, 0x0C	; 12
     2d6:	0e 94 88 00 	call	0x110	; 0x110 <lcd_sendCommand>
     2da:	80 e0       	ldi	r24, 0x00	; 0
     2dc:	0e 94 88 00 	call	0x110	; 0x110 <lcd_sendCommand>
     2e0:	86 e0       	ldi	r24, 0x06	; 6
     2e2:	0e 94 88 00 	call	0x110	; 0x110 <lcd_sendCommand>
     2e6:	08 95       	ret

000002e8 <relay_toggle>:
     2e8:	83 30       	cpi	r24, 0x03	; 3
     2ea:	a9 f0       	breq	.+42     	; 0x316 <relay_toggle+0x2e>
     2ec:	28 f4       	brcc	.+10     	; 0x2f8 <relay_toggle+0x10>
     2ee:	81 30       	cpi	r24, 0x01	; 1
     2f0:	41 f0       	breq	.+16     	; 0x302 <relay_toggle+0x1a>
     2f2:	82 30       	cpi	r24, 0x02	; 2
     2f4:	59 f0       	breq	.+22     	; 0x30c <relay_toggle+0x24>
     2f6:	08 95       	ret
     2f8:	84 30       	cpi	r24, 0x04	; 4
     2fa:	91 f0       	breq	.+36     	; 0x320 <relay_toggle+0x38>
     2fc:	85 30       	cpi	r24, 0x05	; 5
     2fe:	a9 f0       	breq	.+42     	; 0x32a <relay_toggle+0x42>
     300:	08 95       	ret
     302:	60 e0       	ldi	r22, 0x00	; 0
     304:	80 e0       	ldi	r24, 0x00	; 0
     306:	0e 94 87 02 	call	0x50e	; 0x50e <dio_toggleChannel>
     30a:	08 95       	ret
     30c:	61 e0       	ldi	r22, 0x01	; 1
     30e:	80 e0       	ldi	r24, 0x00	; 0
     310:	0e 94 87 02 	call	0x50e	; 0x50e <dio_toggleChannel>
     314:	08 95       	ret
     316:	62 e0       	ldi	r22, 0x02	; 2
     318:	80 e0       	ldi	r24, 0x00	; 0
     31a:	0e 94 87 02 	call	0x50e	; 0x50e <dio_toggleChannel>
     31e:	08 95       	ret
     320:	63 e0       	ldi	r22, 0x03	; 3
     322:	80 e0       	ldi	r24, 0x00	; 0
     324:	0e 94 87 02 	call	0x50e	; 0x50e <dio_toggleChannel>
     328:	08 95       	ret
     32a:	64 e0       	ldi	r22, 0x04	; 4
     32c:	80 e0       	ldi	r24, 0x00	; 0
     32e:	0e 94 87 02 	call	0x50e	; 0x50e <dio_toggleChannel>
     332:	08 95       	ret

00000334 <servo_setAngleDegree>:
     334:	0e 94 83 03 	call	0x706	; 0x706 <pwm1_setDutyCycle>
     338:	08 95       	ret

0000033a <dio_setPinDirection>:
     33a:	81 30       	cpi	r24, 0x01	; 1
     33c:	11 f1       	breq	.+68     	; 0x382 <dio_setPinDirection+0x48>
     33e:	30 f0       	brcs	.+12     	; 0x34c <dio_setPinDirection+0x12>
     340:	82 30       	cpi	r24, 0x02	; 2
     342:	d1 f1       	breq	.+116    	; 0x3b8 <dio_setPinDirection+0x7e>
     344:	83 30       	cpi	r24, 0x03	; 3
     346:	09 f4       	brne	.+2      	; 0x34a <dio_setPinDirection+0x10>
     348:	52 c0       	rjmp	.+164    	; 0x3ee <dio_setPinDirection+0xb4>
     34a:	08 95       	ret
     34c:	41 30       	cpi	r20, 0x01	; 1
     34e:	59 f4       	brne	.+22     	; 0x366 <dio_setPinDirection+0x2c>
     350:	2a b3       	in	r18, 0x1a	; 26
     352:	81 e0       	ldi	r24, 0x01	; 1
     354:	90 e0       	ldi	r25, 0x00	; 0
     356:	02 c0       	rjmp	.+4      	; 0x35c <dio_setPinDirection+0x22>
     358:	88 0f       	add	r24, r24
     35a:	99 1f       	adc	r25, r25
     35c:	6a 95       	dec	r22
     35e:	e2 f7       	brpl	.-8      	; 0x358 <dio_setPinDirection+0x1e>
     360:	82 2b       	or	r24, r18
     362:	8a bb       	out	0x1a, r24	; 26
     364:	08 95       	ret
     366:	41 11       	cpse	r20, r1
     368:	5c c0       	rjmp	.+184    	; 0x422 <__EEPROM_REGION_LENGTH__+0x22>
     36a:	2a b3       	in	r18, 0x1a	; 26
     36c:	81 e0       	ldi	r24, 0x01	; 1
     36e:	90 e0       	ldi	r25, 0x00	; 0
     370:	02 c0       	rjmp	.+4      	; 0x376 <dio_setPinDirection+0x3c>
     372:	88 0f       	add	r24, r24
     374:	99 1f       	adc	r25, r25
     376:	6a 95       	dec	r22
     378:	e2 f7       	brpl	.-8      	; 0x372 <dio_setPinDirection+0x38>
     37a:	80 95       	com	r24
     37c:	82 23       	and	r24, r18
     37e:	8a bb       	out	0x1a, r24	; 26
     380:	08 95       	ret
     382:	41 30       	cpi	r20, 0x01	; 1
     384:	59 f4       	brne	.+22     	; 0x39c <dio_setPinDirection+0x62>
     386:	27 b3       	in	r18, 0x17	; 23
     388:	81 e0       	ldi	r24, 0x01	; 1
     38a:	90 e0       	ldi	r25, 0x00	; 0
     38c:	02 c0       	rjmp	.+4      	; 0x392 <dio_setPinDirection+0x58>
     38e:	88 0f       	add	r24, r24
     390:	99 1f       	adc	r25, r25
     392:	6a 95       	dec	r22
     394:	e2 f7       	brpl	.-8      	; 0x38e <dio_setPinDirection+0x54>
     396:	82 2b       	or	r24, r18
     398:	87 bb       	out	0x17, r24	; 23
     39a:	08 95       	ret
     39c:	41 11       	cpse	r20, r1
     39e:	41 c0       	rjmp	.+130    	; 0x422 <__EEPROM_REGION_LENGTH__+0x22>
     3a0:	27 b3       	in	r18, 0x17	; 23
     3a2:	81 e0       	ldi	r24, 0x01	; 1
     3a4:	90 e0       	ldi	r25, 0x00	; 0
     3a6:	02 c0       	rjmp	.+4      	; 0x3ac <dio_setPinDirection+0x72>
     3a8:	88 0f       	add	r24, r24
     3aa:	99 1f       	adc	r25, r25
     3ac:	6a 95       	dec	r22
     3ae:	e2 f7       	brpl	.-8      	; 0x3a8 <dio_setPinDirection+0x6e>
     3b0:	80 95       	com	r24
     3b2:	82 23       	and	r24, r18
     3b4:	87 bb       	out	0x17, r24	; 23
     3b6:	08 95       	ret
     3b8:	41 30       	cpi	r20, 0x01	; 1
     3ba:	59 f4       	brne	.+22     	; 0x3d2 <dio_setPinDirection+0x98>
     3bc:	24 b3       	in	r18, 0x14	; 20
     3be:	81 e0       	ldi	r24, 0x01	; 1
     3c0:	90 e0       	ldi	r25, 0x00	; 0
     3c2:	02 c0       	rjmp	.+4      	; 0x3c8 <dio_setPinDirection+0x8e>
     3c4:	88 0f       	add	r24, r24
     3c6:	99 1f       	adc	r25, r25
     3c8:	6a 95       	dec	r22
     3ca:	e2 f7       	brpl	.-8      	; 0x3c4 <dio_setPinDirection+0x8a>
     3cc:	82 2b       	or	r24, r18
     3ce:	84 bb       	out	0x14, r24	; 20
     3d0:	08 95       	ret
     3d2:	41 11       	cpse	r20, r1
     3d4:	26 c0       	rjmp	.+76     	; 0x422 <__EEPROM_REGION_LENGTH__+0x22>
     3d6:	24 b3       	in	r18, 0x14	; 20
     3d8:	81 e0       	ldi	r24, 0x01	; 1
     3da:	90 e0       	ldi	r25, 0x00	; 0
     3dc:	02 c0       	rjmp	.+4      	; 0x3e2 <dio_setPinDirection+0xa8>
     3de:	88 0f       	add	r24, r24
     3e0:	99 1f       	adc	r25, r25
     3e2:	6a 95       	dec	r22
     3e4:	e2 f7       	brpl	.-8      	; 0x3de <dio_setPinDirection+0xa4>
     3e6:	80 95       	com	r24
     3e8:	82 23       	and	r24, r18
     3ea:	84 bb       	out	0x14, r24	; 20
     3ec:	08 95       	ret
     3ee:	41 30       	cpi	r20, 0x01	; 1
     3f0:	59 f4       	brne	.+22     	; 0x408 <__EEPROM_REGION_LENGTH__+0x8>
     3f2:	21 b3       	in	r18, 0x11	; 17
     3f4:	81 e0       	ldi	r24, 0x01	; 1
     3f6:	90 e0       	ldi	r25, 0x00	; 0
     3f8:	02 c0       	rjmp	.+4      	; 0x3fe <dio_setPinDirection+0xc4>
     3fa:	88 0f       	add	r24, r24
     3fc:	99 1f       	adc	r25, r25
     3fe:	6a 95       	dec	r22
     400:	e2 f7       	brpl	.-8      	; 0x3fa <dio_setPinDirection+0xc0>
     402:	82 2b       	or	r24, r18
     404:	81 bb       	out	0x11, r24	; 17
     406:	08 95       	ret
     408:	41 11       	cpse	r20, r1
     40a:	0b c0       	rjmp	.+22     	; 0x422 <__EEPROM_REGION_LENGTH__+0x22>
     40c:	21 b3       	in	r18, 0x11	; 17
     40e:	81 e0       	ldi	r24, 0x01	; 1
     410:	90 e0       	ldi	r25, 0x00	; 0
     412:	02 c0       	rjmp	.+4      	; 0x418 <__EEPROM_REGION_LENGTH__+0x18>
     414:	88 0f       	add	r24, r24
     416:	99 1f       	adc	r25, r25
     418:	6a 95       	dec	r22
     41a:	e2 f7       	brpl	.-8      	; 0x414 <__EEPROM_REGION_LENGTH__+0x14>
     41c:	80 95       	com	r24
     41e:	82 23       	and	r24, r18
     420:	81 bb       	out	0x11, r24	; 17
     422:	08 95       	ret

00000424 <dio_writeChannel>:
     424:	81 30       	cpi	r24, 0x01	; 1
     426:	11 f1       	breq	.+68     	; 0x46c <dio_writeChannel+0x48>
     428:	30 f0       	brcs	.+12     	; 0x436 <dio_writeChannel+0x12>
     42a:	82 30       	cpi	r24, 0x02	; 2
     42c:	d1 f1       	breq	.+116    	; 0x4a2 <dio_writeChannel+0x7e>
     42e:	83 30       	cpi	r24, 0x03	; 3
     430:	09 f4       	brne	.+2      	; 0x434 <dio_writeChannel+0x10>
     432:	52 c0       	rjmp	.+164    	; 0x4d8 <dio_writeChannel+0xb4>
     434:	08 95       	ret
     436:	41 30       	cpi	r20, 0x01	; 1
     438:	59 f4       	brne	.+22     	; 0x450 <dio_writeChannel+0x2c>
     43a:	2b b3       	in	r18, 0x1b	; 27
     43c:	81 e0       	ldi	r24, 0x01	; 1
     43e:	90 e0       	ldi	r25, 0x00	; 0
     440:	02 c0       	rjmp	.+4      	; 0x446 <dio_writeChannel+0x22>
     442:	88 0f       	add	r24, r24
     444:	99 1f       	adc	r25, r25
     446:	6a 95       	dec	r22
     448:	e2 f7       	brpl	.-8      	; 0x442 <dio_writeChannel+0x1e>
     44a:	82 2b       	or	r24, r18
     44c:	8b bb       	out	0x1b, r24	; 27
     44e:	08 95       	ret
     450:	41 11       	cpse	r20, r1
     452:	5c c0       	rjmp	.+184    	; 0x50c <dio_writeChannel+0xe8>
     454:	2b b3       	in	r18, 0x1b	; 27
     456:	81 e0       	ldi	r24, 0x01	; 1
     458:	90 e0       	ldi	r25, 0x00	; 0
     45a:	02 c0       	rjmp	.+4      	; 0x460 <dio_writeChannel+0x3c>
     45c:	88 0f       	add	r24, r24
     45e:	99 1f       	adc	r25, r25
     460:	6a 95       	dec	r22
     462:	e2 f7       	brpl	.-8      	; 0x45c <dio_writeChannel+0x38>
     464:	80 95       	com	r24
     466:	82 23       	and	r24, r18
     468:	8b bb       	out	0x1b, r24	; 27
     46a:	08 95       	ret
     46c:	41 30       	cpi	r20, 0x01	; 1
     46e:	59 f4       	brne	.+22     	; 0x486 <dio_writeChannel+0x62>
     470:	28 b3       	in	r18, 0x18	; 24
     472:	81 e0       	ldi	r24, 0x01	; 1
     474:	90 e0       	ldi	r25, 0x00	; 0
     476:	02 c0       	rjmp	.+4      	; 0x47c <dio_writeChannel+0x58>
     478:	88 0f       	add	r24, r24
     47a:	99 1f       	adc	r25, r25
     47c:	6a 95       	dec	r22
     47e:	e2 f7       	brpl	.-8      	; 0x478 <dio_writeChannel+0x54>
     480:	82 2b       	or	r24, r18
     482:	88 bb       	out	0x18, r24	; 24
     484:	08 95       	ret
     486:	41 11       	cpse	r20, r1
     488:	41 c0       	rjmp	.+130    	; 0x50c <dio_writeChannel+0xe8>
     48a:	28 b3       	in	r18, 0x18	; 24
     48c:	81 e0       	ldi	r24, 0x01	; 1
     48e:	90 e0       	ldi	r25, 0x00	; 0
     490:	02 c0       	rjmp	.+4      	; 0x496 <dio_writeChannel+0x72>
     492:	88 0f       	add	r24, r24
     494:	99 1f       	adc	r25, r25
     496:	6a 95       	dec	r22
     498:	e2 f7       	brpl	.-8      	; 0x492 <dio_writeChannel+0x6e>
     49a:	80 95       	com	r24
     49c:	82 23       	and	r24, r18
     49e:	88 bb       	out	0x18, r24	; 24
     4a0:	08 95       	ret
     4a2:	41 30       	cpi	r20, 0x01	; 1
     4a4:	59 f4       	brne	.+22     	; 0x4bc <dio_writeChannel+0x98>
     4a6:	25 b3       	in	r18, 0x15	; 21
     4a8:	81 e0       	ldi	r24, 0x01	; 1
     4aa:	90 e0       	ldi	r25, 0x00	; 0
     4ac:	02 c0       	rjmp	.+4      	; 0x4b2 <dio_writeChannel+0x8e>
     4ae:	88 0f       	add	r24, r24
     4b0:	99 1f       	adc	r25, r25
     4b2:	6a 95       	dec	r22
     4b4:	e2 f7       	brpl	.-8      	; 0x4ae <dio_writeChannel+0x8a>
     4b6:	82 2b       	or	r24, r18
     4b8:	85 bb       	out	0x15, r24	; 21
     4ba:	08 95       	ret
     4bc:	41 11       	cpse	r20, r1
     4be:	26 c0       	rjmp	.+76     	; 0x50c <dio_writeChannel+0xe8>
     4c0:	25 b3       	in	r18, 0x15	; 21
     4c2:	81 e0       	ldi	r24, 0x01	; 1
     4c4:	90 e0       	ldi	r25, 0x00	; 0
     4c6:	02 c0       	rjmp	.+4      	; 0x4cc <dio_writeChannel+0xa8>
     4c8:	88 0f       	add	r24, r24
     4ca:	99 1f       	adc	r25, r25
     4cc:	6a 95       	dec	r22
     4ce:	e2 f7       	brpl	.-8      	; 0x4c8 <dio_writeChannel+0xa4>
     4d0:	80 95       	com	r24
     4d2:	82 23       	and	r24, r18
     4d4:	85 bb       	out	0x15, r24	; 21
     4d6:	08 95       	ret
     4d8:	41 30       	cpi	r20, 0x01	; 1
     4da:	59 f4       	brne	.+22     	; 0x4f2 <dio_writeChannel+0xce>
     4dc:	22 b3       	in	r18, 0x12	; 18
     4de:	81 e0       	ldi	r24, 0x01	; 1
     4e0:	90 e0       	ldi	r25, 0x00	; 0
     4e2:	02 c0       	rjmp	.+4      	; 0x4e8 <dio_writeChannel+0xc4>
     4e4:	88 0f       	add	r24, r24
     4e6:	99 1f       	adc	r25, r25
     4e8:	6a 95       	dec	r22
     4ea:	e2 f7       	brpl	.-8      	; 0x4e4 <dio_writeChannel+0xc0>
     4ec:	82 2b       	or	r24, r18
     4ee:	82 bb       	out	0x12, r24	; 18
     4f0:	08 95       	ret
     4f2:	41 11       	cpse	r20, r1
     4f4:	0b c0       	rjmp	.+22     	; 0x50c <dio_writeChannel+0xe8>
     4f6:	22 b3       	in	r18, 0x12	; 18
     4f8:	81 e0       	ldi	r24, 0x01	; 1
     4fa:	90 e0       	ldi	r25, 0x00	; 0
     4fc:	02 c0       	rjmp	.+4      	; 0x502 <dio_writeChannel+0xde>
     4fe:	88 0f       	add	r24, r24
     500:	99 1f       	adc	r25, r25
     502:	6a 95       	dec	r22
     504:	e2 f7       	brpl	.-8      	; 0x4fe <dio_writeChannel+0xda>
     506:	80 95       	com	r24
     508:	82 23       	and	r24, r18
     50a:	82 bb       	out	0x12, r24	; 18
     50c:	08 95       	ret

0000050e <dio_toggleChannel>:
     50e:	81 30       	cpi	r24, 0x01	; 1
     510:	89 f0       	breq	.+34     	; 0x534 <dio_toggleChannel+0x26>
     512:	28 f0       	brcs	.+10     	; 0x51e <dio_toggleChannel+0x10>
     514:	82 30       	cpi	r24, 0x02	; 2
     516:	c9 f0       	breq	.+50     	; 0x54a <dio_toggleChannel+0x3c>
     518:	83 30       	cpi	r24, 0x03	; 3
     51a:	11 f1       	breq	.+68     	; 0x560 <dio_toggleChannel+0x52>
     51c:	08 95       	ret
     51e:	2b b3       	in	r18, 0x1b	; 27
     520:	81 e0       	ldi	r24, 0x01	; 1
     522:	90 e0       	ldi	r25, 0x00	; 0
     524:	02 c0       	rjmp	.+4      	; 0x52a <dio_toggleChannel+0x1c>
     526:	88 0f       	add	r24, r24
     528:	99 1f       	adc	r25, r25
     52a:	6a 95       	dec	r22
     52c:	e2 f7       	brpl	.-8      	; 0x526 <dio_toggleChannel+0x18>
     52e:	82 27       	eor	r24, r18
     530:	8b bb       	out	0x1b, r24	; 27
     532:	08 95       	ret
     534:	28 b3       	in	r18, 0x18	; 24
     536:	81 e0       	ldi	r24, 0x01	; 1
     538:	90 e0       	ldi	r25, 0x00	; 0
     53a:	02 c0       	rjmp	.+4      	; 0x540 <dio_toggleChannel+0x32>
     53c:	88 0f       	add	r24, r24
     53e:	99 1f       	adc	r25, r25
     540:	6a 95       	dec	r22
     542:	e2 f7       	brpl	.-8      	; 0x53c <dio_toggleChannel+0x2e>
     544:	82 27       	eor	r24, r18
     546:	88 bb       	out	0x18, r24	; 24
     548:	08 95       	ret
     54a:	25 b3       	in	r18, 0x15	; 21
     54c:	81 e0       	ldi	r24, 0x01	; 1
     54e:	90 e0       	ldi	r25, 0x00	; 0
     550:	02 c0       	rjmp	.+4      	; 0x556 <dio_toggleChannel+0x48>
     552:	88 0f       	add	r24, r24
     554:	99 1f       	adc	r25, r25
     556:	6a 95       	dec	r22
     558:	e2 f7       	brpl	.-8      	; 0x552 <dio_toggleChannel+0x44>
     55a:	82 27       	eor	r24, r18
     55c:	85 bb       	out	0x15, r24	; 21
     55e:	08 95       	ret
     560:	22 b3       	in	r18, 0x12	; 18
     562:	81 e0       	ldi	r24, 0x01	; 1
     564:	90 e0       	ldi	r25, 0x00	; 0
     566:	02 c0       	rjmp	.+4      	; 0x56c <dio_toggleChannel+0x5e>
     568:	88 0f       	add	r24, r24
     56a:	99 1f       	adc	r25, r25
     56c:	6a 95       	dec	r22
     56e:	e2 f7       	brpl	.-8      	; 0x568 <dio_toggleChannel+0x5a>
     570:	82 27       	eor	r24, r18
     572:	82 bb       	out	0x12, r24	; 18
     574:	08 95       	ret

00000576 <EEPROM_write>:
     576:	e1 99       	sbic	0x1c, 1	; 28
     578:	fe cf       	rjmp	.-4      	; 0x576 <EEPROM_write>
     57a:	9f bb       	out	0x1f, r25	; 31
     57c:	8e bb       	out	0x1e, r24	; 30
     57e:	6d bb       	out	0x1d, r22	; 29
     580:	e2 9a       	sbi	0x1c, 2	; 28
     582:	e1 9a       	sbi	0x1c, 1	; 28
     584:	08 95       	ret

00000586 <EEPROM_read>:
     586:	e1 99       	sbic	0x1c, 1	; 28
     588:	fe cf       	rjmp	.-4      	; 0x586 <EEPROM_read>
     58a:	9f bb       	out	0x1f, r25	; 31
     58c:	8e bb       	out	0x1e, r24	; 30
     58e:	e0 9a       	sbi	0x1c, 0	; 28
     590:	8d b3       	in	r24, 0x1d	; 29
     592:	08 95       	ret

00000594 <EEPROM_write_block>:
     594:	ef 92       	push	r14
     596:	ff 92       	push	r15
     598:	0f 93       	push	r16
     59a:	1f 93       	push	r17
     59c:	cf 93       	push	r28
     59e:	df 93       	push	r29
     5a0:	8c 01       	movw	r16, r24
     5a2:	eb 01       	movw	r28, r22
     5a4:	7b 01       	movw	r14, r22
     5a6:	e4 0e       	add	r14, r20
     5a8:	f1 1c       	adc	r15, r1
     5aa:	6e 15       	cp	r22, r14
     5ac:	7f 05       	cpc	r23, r15
     5ae:	50 f4       	brcc	.+20     	; 0x5c4 <EEPROM_write_block+0x30>
     5b0:	f8 01       	movw	r30, r16
     5b2:	61 91       	ld	r22, Z+
     5b4:	8f 01       	movw	r16, r30
     5b6:	ce 01       	movw	r24, r28
     5b8:	0e 94 bb 02 	call	0x576	; 0x576 <EEPROM_write>
     5bc:	21 96       	adiw	r28, 0x01	; 1
     5be:	ce 15       	cp	r28, r14
     5c0:	df 05       	cpc	r29, r15
     5c2:	b0 f3       	brcs	.-20     	; 0x5b0 <EEPROM_write_block+0x1c>
     5c4:	df 91       	pop	r29
     5c6:	cf 91       	pop	r28
     5c8:	1f 91       	pop	r17
     5ca:	0f 91       	pop	r16
     5cc:	ff 90       	pop	r15
     5ce:	ef 90       	pop	r14
     5d0:	08 95       	ret

000005d2 <EEPROM_read_block>:
     5d2:	ef 92       	push	r14
     5d4:	ff 92       	push	r15
     5d6:	0f 93       	push	r16
     5d8:	1f 93       	push	r17
     5da:	cf 93       	push	r28
     5dc:	df 93       	push	r29
     5de:	8c 01       	movw	r16, r24
     5e0:	eb 01       	movw	r28, r22
     5e2:	7b 01       	movw	r14, r22
     5e4:	e4 0e       	add	r14, r20
     5e6:	f1 1c       	adc	r15, r1
     5e8:	6e 15       	cp	r22, r14
     5ea:	7f 05       	cpc	r23, r15
     5ec:	50 f4       	brcc	.+20     	; 0x602 <EEPROM_read_block+0x30>
     5ee:	ce 01       	movw	r24, r28
     5f0:	0e 94 c3 02 	call	0x586	; 0x586 <EEPROM_read>
     5f4:	f8 01       	movw	r30, r16
     5f6:	81 93       	st	Z+, r24
     5f8:	8f 01       	movw	r16, r30
     5fa:	21 96       	adiw	r28, 0x01	; 1
     5fc:	ce 15       	cp	r28, r14
     5fe:	df 05       	cpc	r29, r15
     600:	b0 f3       	brcs	.-20     	; 0x5ee <EEPROM_read_block+0x1c>
     602:	df 91       	pop	r29
     604:	cf 91       	pop	r28
     606:	1f 91       	pop	r17
     608:	0f 91       	pop	r16
     60a:	ff 90       	pop	r15
     60c:	ef 90       	pop	r14
     60e:	08 95       	ret

00000610 <__vector_11>:
     610:	1f 92       	push	r1
     612:	0f 92       	push	r0
     614:	0f b6       	in	r0, 0x3f	; 63
     616:	0f 92       	push	r0
     618:	11 24       	eor	r1, r1
     61a:	2f 93       	push	r18
     61c:	3f 93       	push	r19
     61e:	4f 93       	push	r20
     620:	5f 93       	push	r21
     622:	6f 93       	push	r22
     624:	7f 93       	push	r23
     626:	8f 93       	push	r24
     628:	9f 93       	push	r25
     62a:	af 93       	push	r26
     62c:	bf 93       	push	r27
     62e:	ef 93       	push	r30
     630:	ff 93       	push	r31
     632:	e0 91 0d 03 	lds	r30, 0x030D	; 0x80030d <timer0OvClbkPtr>
     636:	f0 91 0e 03 	lds	r31, 0x030E	; 0x80030e <timer0OvClbkPtr+0x1>
     63a:	30 97       	sbiw	r30, 0x00	; 0
     63c:	09 f0       	breq	.+2      	; 0x640 <__vector_11+0x30>
     63e:	09 95       	icall
     640:	ff 91       	pop	r31
     642:	ef 91       	pop	r30
     644:	bf 91       	pop	r27
     646:	af 91       	pop	r26
     648:	9f 91       	pop	r25
     64a:	8f 91       	pop	r24
     64c:	7f 91       	pop	r23
     64e:	6f 91       	pop	r22
     650:	5f 91       	pop	r21
     652:	4f 91       	pop	r20
     654:	3f 91       	pop	r19
     656:	2f 91       	pop	r18
     658:	0f 90       	pop	r0
     65a:	0f be       	out	0x3f, r0	; 63
     65c:	0f 90       	pop	r0
     65e:	1f 90       	pop	r1
     660:	18 95       	reti

00000662 <__vector_10>:
     662:	1f 92       	push	r1
     664:	0f 92       	push	r0
     666:	0f b6       	in	r0, 0x3f	; 63
     668:	0f 92       	push	r0
     66a:	11 24       	eor	r1, r1
     66c:	2f 93       	push	r18
     66e:	3f 93       	push	r19
     670:	4f 93       	push	r20
     672:	5f 93       	push	r21
     674:	6f 93       	push	r22
     676:	7f 93       	push	r23
     678:	8f 93       	push	r24
     67a:	9f 93       	push	r25
     67c:	af 93       	push	r26
     67e:	bf 93       	push	r27
     680:	ef 93       	push	r30
     682:	ff 93       	push	r31
     684:	e0 91 0b 03 	lds	r30, 0x030B	; 0x80030b <timer0CTCClbkPtr>
     688:	f0 91 0c 03 	lds	r31, 0x030C	; 0x80030c <timer0CTCClbkPtr+0x1>
     68c:	30 97       	sbiw	r30, 0x00	; 0
     68e:	09 f0       	breq	.+2      	; 0x692 <__vector_10+0x30>
     690:	09 95       	icall
     692:	ff 91       	pop	r31
     694:	ef 91       	pop	r30
     696:	bf 91       	pop	r27
     698:	af 91       	pop	r26
     69a:	9f 91       	pop	r25
     69c:	8f 91       	pop	r24
     69e:	7f 91       	pop	r23
     6a0:	6f 91       	pop	r22
     6a2:	5f 91       	pop	r21
     6a4:	4f 91       	pop	r20
     6a6:	3f 91       	pop	r19
     6a8:	2f 91       	pop	r18
     6aa:	0f 90       	pop	r0
     6ac:	0f be       	out	0x3f, r0	; 63
     6ae:	0f 90       	pop	r0
     6b0:	1f 90       	pop	r1
     6b2:	18 95       	reti

000006b4 <__vector_9>:
	TIMER1_TCCR1B_REG |= freq;
}

void pwm1_setTopValue(u8 topValue)
{
	ICR1 = topValue;
     6b4:	1f 92       	push	r1
     6b6:	0f 92       	push	r0
     6b8:	0f b6       	in	r0, 0x3f	; 63
     6ba:	0f 92       	push	r0
     6bc:	11 24       	eor	r1, r1
     6be:	2f 93       	push	r18
     6c0:	3f 93       	push	r19
     6c2:	4f 93       	push	r20
     6c4:	5f 93       	push	r21
     6c6:	6f 93       	push	r22
     6c8:	7f 93       	push	r23
     6ca:	8f 93       	push	r24
     6cc:	9f 93       	push	r25
     6ce:	af 93       	push	r26
     6d0:	bf 93       	push	r27
     6d2:	ef 93       	push	r30
     6d4:	ff 93       	push	r31
     6d6:	e0 91 0f 03 	lds	r30, 0x030F	; 0x80030f <timer1OvClbkPtr>
     6da:	f0 91 10 03 	lds	r31, 0x0310	; 0x800310 <timer1OvClbkPtr+0x1>
     6de:	30 97       	sbiw	r30, 0x00	; 0
     6e0:	09 f0       	breq	.+2      	; 0x6e4 <__vector_9+0x30>
     6e2:	09 95       	icall
     6e4:	ff 91       	pop	r31
     6e6:	ef 91       	pop	r30
     6e8:	bf 91       	pop	r27
     6ea:	af 91       	pop	r26
     6ec:	9f 91       	pop	r25
     6ee:	8f 91       	pop	r24
     6f0:	7f 91       	pop	r23
     6f2:	6f 91       	pop	r22
     6f4:	5f 91       	pop	r21
     6f6:	4f 91       	pop	r20
     6f8:	3f 91       	pop	r19
     6fa:	2f 91       	pop	r18
     6fc:	0f 90       	pop	r0
     6fe:	0f be       	out	0x3f, r0	; 63
     700:	0f 90       	pop	r0
     702:	1f 90       	pop	r1
     704:	18 95       	reti

00000706 <pwm1_setDutyCycle>:
}

void pwm1_setDutyCycle(u8 dutyCycle)
{
	OCR1A = dutyCycle;
     706:	90 e0       	ldi	r25, 0x00	; 0
     708:	9b bd       	out	0x2b, r25	; 43
     70a:	8a bd       	out	0x2a, r24	; 42
     70c:	08 95       	ret

0000070e <__vector_5>:
     70e:	1f 92       	push	r1
     710:	0f 92       	push	r0
     712:	0f b6       	in	r0, 0x3f	; 63
     714:	0f 92       	push	r0
     716:	11 24       	eor	r1, r1
     718:	2f 93       	push	r18
     71a:	3f 93       	push	r19
     71c:	4f 93       	push	r20
     71e:	5f 93       	push	r21
     720:	6f 93       	push	r22
     722:	7f 93       	push	r23
     724:	8f 93       	push	r24
     726:	9f 93       	push	r25
     728:	af 93       	push	r26
     72a:	bf 93       	push	r27
     72c:	ef 93       	push	r30
     72e:	ff 93       	push	r31
     730:	e0 91 13 03 	lds	r30, 0x0313	; 0x800313 <timer2OvClbkPtr>
     734:	f0 91 14 03 	lds	r31, 0x0314	; 0x800314 <timer2OvClbkPtr+0x1>
     738:	30 97       	sbiw	r30, 0x00	; 0
     73a:	09 f0       	breq	.+2      	; 0x73e <__vector_5+0x30>
     73c:	09 95       	icall
     73e:	ff 91       	pop	r31
     740:	ef 91       	pop	r30
     742:	bf 91       	pop	r27
     744:	af 91       	pop	r26
     746:	9f 91       	pop	r25
     748:	8f 91       	pop	r24
     74a:	7f 91       	pop	r23
     74c:	6f 91       	pop	r22
     74e:	5f 91       	pop	r21
     750:	4f 91       	pop	r20
     752:	3f 91       	pop	r19
     754:	2f 91       	pop	r18
     756:	0f 90       	pop	r0
     758:	0f be       	out	0x3f, r0	; 63
     75a:	0f 90       	pop	r0
     75c:	1f 90       	pop	r1
     75e:	18 95       	reti

00000760 <__vector_4>:
     760:	1f 92       	push	r1
     762:	0f 92       	push	r0
     764:	0f b6       	in	r0, 0x3f	; 63
     766:	0f 92       	push	r0
     768:	11 24       	eor	r1, r1
     76a:	2f 93       	push	r18
     76c:	3f 93       	push	r19
     76e:	4f 93       	push	r20
     770:	5f 93       	push	r21
     772:	6f 93       	push	r22
     774:	7f 93       	push	r23
     776:	8f 93       	push	r24
     778:	9f 93       	push	r25
     77a:	af 93       	push	r26
     77c:	bf 93       	push	r27
     77e:	ef 93       	push	r30
     780:	ff 93       	push	r31
     782:	e0 91 11 03 	lds	r30, 0x0311	; 0x800311 <timer2CTCClbkPtr>
     786:	f0 91 12 03 	lds	r31, 0x0312	; 0x800312 <timer2CTCClbkPtr+0x1>
     78a:	30 97       	sbiw	r30, 0x00	; 0
     78c:	09 f0       	breq	.+2      	; 0x790 <__vector_4+0x30>
     78e:	09 95       	icall
     790:	ff 91       	pop	r31
     792:	ef 91       	pop	r30
     794:	bf 91       	pop	r27
     796:	af 91       	pop	r26
     798:	9f 91       	pop	r25
     79a:	8f 91       	pop	r24
     79c:	7f 91       	pop	r23
     79e:	6f 91       	pop	r22
     7a0:	5f 91       	pop	r21
     7a2:	4f 91       	pop	r20
     7a4:	3f 91       	pop	r19
     7a6:	2f 91       	pop	r18
     7a8:	0f 90       	pop	r0
     7aa:	0f be       	out	0x3f, r0	; 63
     7ac:	0f 90       	pop	r0
     7ae:	1f 90       	pop	r1
     7b0:	18 95       	reti

000007b2 <uart_init>:
     7b2:	89 b9       	out	0x09, r24	; 9
     7b4:	90 bd       	out	0x20, r25	; 32
     7b6:	53 9a       	sbi	0x0a, 3	; 10
     7b8:	54 9a       	sbi	0x0a, 4	; 10
     7ba:	86 e8       	ldi	r24, 0x86	; 134
     7bc:	80 bd       	out	0x20, r24	; 32
     7be:	08 95       	ret

000007c0 <uart_sendByte>:
     7c0:	5d 9b       	sbis	0x0b, 5	; 11
     7c2:	fe cf       	rjmp	.-4      	; 0x7c0 <uart_sendByte>
     7c4:	8c b9       	out	0x0c, r24	; 12
     7c6:	08 95       	ret

000007c8 <uart_sendString>:
     7c8:	cf 93       	push	r28
     7ca:	df 93       	push	r29
     7cc:	ec 01       	movw	r28, r24
     7ce:	88 81       	ld	r24, Y
     7d0:	88 23       	and	r24, r24
     7d2:	31 f0       	breq	.+12     	; 0x7e0 <uart_sendString+0x18>
     7d4:	21 96       	adiw	r28, 0x01	; 1
     7d6:	0e 94 e0 03 	call	0x7c0	; 0x7c0 <uart_sendByte>
     7da:	89 91       	ld	r24, Y+
     7dc:	81 11       	cpse	r24, r1
     7de:	fb cf       	rjmp	.-10     	; 0x7d6 <uart_sendString+0xe>
     7e0:	df 91       	pop	r29
     7e2:	cf 91       	pop	r28
     7e4:	08 95       	ret

000007e6 <uart_receiveByte>:
     7e6:	5f 9b       	sbis	0x0b, 7	; 11
     7e8:	fe cf       	rjmp	.-4      	; 0x7e6 <uart_receiveByte>
     7ea:	8c b1       	in	r24, 0x0c	; 12
     7ec:	08 95       	ret

000007ee <uart_receiveString>:
     7ee:	ef 92       	push	r14
     7f0:	ff 92       	push	r15
     7f2:	0f 93       	push	r16
     7f4:	1f 93       	push	r17
     7f6:	cf 93       	push	r28
     7f8:	7c 01       	movw	r14, r24
     7fa:	0e 94 f3 03 	call	0x7e6	; 0x7e6 <uart_receiveByte>
     7fe:	f7 01       	movw	r30, r14
     800:	80 83       	st	Z, r24
     802:	83 32       	cpi	r24, 0x23	; 35
     804:	61 f0       	breq	.+24     	; 0x81e <__DATA_REGION_LENGTH__+0x1e>
     806:	c0 e0       	ldi	r28, 0x00	; 0
     808:	cf 5f       	subi	r28, 0xFF	; 255
     80a:	87 01       	movw	r16, r14
     80c:	0c 0f       	add	r16, r28
     80e:	11 1d       	adc	r17, r1
     810:	0e 94 f3 03 	call	0x7e6	; 0x7e6 <uart_receiveByte>
     814:	f8 01       	movw	r30, r16
     816:	80 83       	st	Z, r24
     818:	83 32       	cpi	r24, 0x23	; 35
     81a:	b1 f7       	brne	.-20     	; 0x808 <__DATA_REGION_LENGTH__+0x8>
     81c:	01 c0       	rjmp	.+2      	; 0x820 <__DATA_REGION_LENGTH__+0x20>
     81e:	87 01       	movw	r16, r14
     820:	f8 01       	movw	r30, r16
     822:	10 82       	st	Z, r1
     824:	cf 91       	pop	r28
     826:	1f 91       	pop	r17
     828:	0f 91       	pop	r16
     82a:	ff 90       	pop	r15
     82c:	ef 90       	pop	r14
     82e:	08 95       	ret

00000830 <airConditioner_Toggle>:
     830:	e8 e1       	ldi	r30, 0x18	; 24
     832:	f3 e0       	ldi	r31, 0x03	; 3
     834:	90 81       	ld	r25, Z
     836:	81 e0       	ldi	r24, 0x01	; 1
     838:	89 27       	eor	r24, r25
     83a:	80 83       	st	Z, r24
     83c:	08 95       	ret

0000083e <airConditioner_Status>:
     83e:	60 91 18 03 	lds	r22, 0x0318	; 0x800318 <AC_CFG>
     842:	70 91 19 03 	lds	r23, 0x0319	; 0x800319 <AC_CFG+0x1>
     846:	80 91 1a 03 	lds	r24, 0x031A	; 0x80031a <AC_CFG+0x2>
     84a:	08 95       	ret

0000084c <doorOpen>:
     84c:	88 e5       	ldi	r24, 0x58	; 88
     84e:	92 e0       	ldi	r25, 0x02	; 2
     850:	0e 94 9a 01 	call	0x334	; 0x334 <servo_setAngleDegree>
     854:	81 e0       	ldi	r24, 0x01	; 1
     856:	80 93 15 03 	sts	0x0315, r24	; 0x800315 <doorState>
     85a:	08 95       	ret

0000085c <doorClose>:
     85c:	8e e5       	ldi	r24, 0x5E	; 94
     85e:	91 e0       	ldi	r25, 0x01	; 1
     860:	0e 94 9a 01 	call	0x334	; 0x334 <servo_setAngleDegree>
     864:	10 92 15 03 	sts	0x0315, r1	; 0x800315 <doorState>
     868:	08 95       	ret

0000086a <doorToggle>:
     86a:	80 91 15 03 	lds	r24, 0x0315	; 0x800315 <doorState>
     86e:	81 11       	cpse	r24, r1
     870:	03 c0       	rjmp	.+6      	; 0x878 <doorToggle+0xe>
     872:	0e 94 26 04 	call	0x84c	; 0x84c <doorOpen>
     876:	08 95       	ret
     878:	0e 94 2e 04 	call	0x85c	; 0x85c <doorClose>
     87c:	08 95       	ret

0000087e <Lamp_Service_Dim_Toggle>:
     87e:	90 91 60 00 	lds	r25, 0x0060	; 0x800060 <__DATA_REGION_ORIGIN__>
     882:	81 e0       	ldi	r24, 0x01	; 1
     884:	89 27       	eor	r24, r25
     886:	80 93 60 00 	sts	0x0060, r24	; 0x800060 <__DATA_REGION_ORIGIN__>
     88a:	08 95       	ret

0000088c <addUserToEEPROM_local>:
     88c:	cf 92       	push	r12
     88e:	df 92       	push	r13
     890:	ef 92       	push	r14
     892:	ff 92       	push	r15
     894:	1f 93       	push	r17
     896:	cf 93       	push	r28
     898:	df 93       	push	r29
     89a:	cd b7       	in	r28, 0x3d	; 61
     89c:	de b7       	in	r29, 0x3e	; 62
     89e:	6b 97       	sbiw	r28, 0x1b	; 27
     8a0:	0f b6       	in	r0, 0x3f	; 63
     8a2:	f8 94       	cli
     8a4:	de bf       	out	0x3e, r29	; 62
     8a6:	0f be       	out	0x3f, r0	; 63
     8a8:	cd bf       	out	0x3d, r28	; 61
     8aa:	6c 01       	movw	r12, r24
     8ac:	7b 01       	movw	r14, r22
     8ae:	60 e0       	ldi	r22, 0x00	; 0
     8b0:	80 e0       	ldi	r24, 0x00	; 0
     8b2:	90 e0       	ldi	r25, 0x00	; 0
     8b4:	0e 94 bb 02 	call	0x576	; 0x576 <EEPROM_write>
     8b8:	41 e0       	ldi	r20, 0x01	; 1
     8ba:	60 e0       	ldi	r22, 0x00	; 0
     8bc:	70 e0       	ldi	r23, 0x00	; 0
     8be:	ce 01       	movw	r24, r28
     8c0:	01 96       	adiw	r24, 0x01	; 1
     8c2:	0e 94 e9 02 	call	0x5d2	; 0x5d2 <EEPROM_read_block>
     8c6:	19 81       	ldd	r17, Y+1	; 0x01
     8c8:	1a 30       	cpi	r17, 0x0A	; 10
     8ca:	40 f5       	brcc	.+80     	; 0x91c <addUserToEEPROM_local+0x90>
     8cc:	4f e0       	ldi	r20, 0x0F	; 15
     8ce:	50 e0       	ldi	r21, 0x00	; 0
     8d0:	b6 01       	movw	r22, r12
     8d2:	ce 01       	movw	r24, r28
     8d4:	02 96       	adiw	r24, 0x02	; 2
     8d6:	0e 94 e0 07 	call	0xfc0	; 0xfc0 <strncpy>
     8da:	48 e0       	ldi	r20, 0x08	; 8
     8dc:	50 e0       	ldi	r21, 0x00	; 0
     8de:	b7 01       	movw	r22, r14
     8e0:	ce 01       	movw	r24, r28
     8e2:	42 96       	adiw	r24, 0x12	; 18
     8e4:	0e 94 e0 07 	call	0xfc0	; 0xfc0 <strncpy>
     8e8:	81 e0       	ldi	r24, 0x01	; 1
     8ea:	81 0f       	add	r24, r17
     8ec:	8b 8f       	std	Y+27, r24	; 0x1b
     8ee:	8a e1       	ldi	r24, 0x1A	; 26
     8f0:	18 9f       	mul	r17, r24
     8f2:	b0 01       	movw	r22, r0
     8f4:	11 24       	eor	r1, r1
     8f6:	6f 5f       	subi	r22, 0xFF	; 255
     8f8:	7f 4f       	sbci	r23, 0xFF	; 255
     8fa:	4a e1       	ldi	r20, 0x1A	; 26
     8fc:	ce 01       	movw	r24, r28
     8fe:	02 96       	adiw	r24, 0x02	; 2
     900:	0e 94 ca 02 	call	0x594	; 0x594 <EEPROM_write_block>
     904:	89 81       	ldd	r24, Y+1	; 0x01
     906:	8f 5f       	subi	r24, 0xFF	; 255
     908:	89 83       	std	Y+1, r24	; 0x01
     90a:	41 e0       	ldi	r20, 0x01	; 1
     90c:	60 e0       	ldi	r22, 0x00	; 0
     90e:	70 e0       	ldi	r23, 0x00	; 0
     910:	ce 01       	movw	r24, r28
     912:	01 96       	adiw	r24, 0x01	; 1
     914:	0e 94 ca 02 	call	0x594	; 0x594 <EEPROM_write_block>
     918:	80 e0       	ldi	r24, 0x00	; 0
     91a:	01 c0       	rjmp	.+2      	; 0x91e <addUserToEEPROM_local+0x92>
     91c:	81 e0       	ldi	r24, 0x01	; 1
     91e:	6b 96       	adiw	r28, 0x1b	; 27
     920:	0f b6       	in	r0, 0x3f	; 63
     922:	f8 94       	cli
     924:	de bf       	out	0x3e, r29	; 62
     926:	0f be       	out	0x3f, r0	; 63
     928:	cd bf       	out	0x3d, r28	; 61
     92a:	df 91       	pop	r29
     92c:	cf 91       	pop	r28
     92e:	1f 91       	pop	r17
     930:	ff 90       	pop	r15
     932:	ef 90       	pop	r14
     934:	df 90       	pop	r13
     936:	cf 90       	pop	r12
     938:	08 95       	ret

0000093a <getPassword_remote>:
     93a:	cf 93       	push	r28
     93c:	df 93       	push	r29
     93e:	ec 01       	movw	r28, r24
     940:	81 e6       	ldi	r24, 0x61	; 97
     942:	90 e0       	ldi	r25, 0x00	; 0
     944:	0e 94 e4 03 	call	0x7c8	; 0x7c8 <uart_sendString>
     948:	ce 01       	movw	r24, r28
     94a:	0e 94 f7 03 	call	0x7ee	; 0x7ee <uart_receiveString>
     94e:	8c eb       	ldi	r24, 0xBC	; 188
     950:	91 e0       	ldi	r25, 0x01	; 1
     952:	0e 94 e4 03 	call	0x7c8	; 0x7c8 <uart_sendString>
     956:	df 91       	pop	r29
     958:	cf 91       	pop	r28
     95a:	08 95       	ret

0000095c <writeUserToEEPROM>:
     95c:	0f 93       	push	r16
     95e:	1f 93       	push	r17
     960:	cf 93       	push	r28
     962:	df 93       	push	r29
     964:	8c 01       	movw	r16, r24
     966:	8a e1       	ldi	r24, 0x1A	; 26
     968:	68 9f       	mul	r22, r24
     96a:	e0 01       	movw	r28, r0
     96c:	11 24       	eor	r1, r1
     96e:	cf 5f       	subi	r28, 0xFF	; 255
     970:	dd 4f       	sbci	r29, 0xFD	; 253
     972:	40 e1       	ldi	r20, 0x10	; 16
     974:	be 01       	movw	r22, r28
     976:	c8 01       	movw	r24, r16
     978:	0e 94 ca 02 	call	0x594	; 0x594 <EEPROM_write_block>
     97c:	be 01       	movw	r22, r28
     97e:	60 5f       	subi	r22, 0xF0	; 240
     980:	7f 4f       	sbci	r23, 0xFF	; 255
     982:	49 e0       	ldi	r20, 0x09	; 9
     984:	c8 01       	movw	r24, r16
     986:	40 96       	adiw	r24, 0x10	; 16
     988:	0e 94 ca 02 	call	0x594	; 0x594 <EEPROM_write_block>
     98c:	f8 01       	movw	r30, r16
     98e:	61 8d       	ldd	r22, Z+25	; 0x19
     990:	ce 01       	movw	r24, r28
     992:	49 96       	adiw	r24, 0x19	; 25
     994:	0e 94 bb 02 	call	0x576	; 0x576 <EEPROM_write>
     998:	df 91       	pop	r29
     99a:	cf 91       	pop	r28
     99c:	1f 91       	pop	r17
     99e:	0f 91       	pop	r16
     9a0:	08 95       	ret

000009a2 <readUserFromEEPROM>:
     9a2:	0f 93       	push	r16
     9a4:	1f 93       	push	r17
     9a6:	cf 93       	push	r28
     9a8:	df 93       	push	r29
     9aa:	8c 01       	movw	r16, r24
     9ac:	8a e1       	ldi	r24, 0x1A	; 26
     9ae:	68 9f       	mul	r22, r24
     9b0:	e0 01       	movw	r28, r0
     9b2:	11 24       	eor	r1, r1
     9b4:	cf 5f       	subi	r28, 0xFF	; 255
     9b6:	dd 4f       	sbci	r29, 0xFD	; 253
     9b8:	40 e1       	ldi	r20, 0x10	; 16
     9ba:	be 01       	movw	r22, r28
     9bc:	c8 01       	movw	r24, r16
     9be:	0e 94 e9 02 	call	0x5d2	; 0x5d2 <EEPROM_read_block>
     9c2:	be 01       	movw	r22, r28
     9c4:	60 5f       	subi	r22, 0xF0	; 240
     9c6:	7f 4f       	sbci	r23, 0xFF	; 255
     9c8:	49 e0       	ldi	r20, 0x09	; 9
     9ca:	c8 01       	movw	r24, r16
     9cc:	40 96       	adiw	r24, 0x10	; 16
     9ce:	0e 94 e9 02 	call	0x5d2	; 0x5d2 <EEPROM_read_block>
     9d2:	ce 01       	movw	r24, r28
     9d4:	49 96       	adiw	r24, 0x19	; 25
     9d6:	0e 94 c3 02 	call	0x586	; 0x586 <EEPROM_read>
     9da:	f8 01       	movw	r30, r16
     9dc:	81 8f       	std	Z+25, r24	; 0x19
     9de:	df 91       	pop	r29
     9e0:	cf 91       	pop	r28
     9e2:	1f 91       	pop	r17
     9e4:	0f 91       	pop	r16
     9e6:	08 95       	ret

000009e8 <addUserToEEPROM_remote>:
     9e8:	ef 92       	push	r14
     9ea:	ff 92       	push	r15
     9ec:	0f 93       	push	r16
     9ee:	1f 93       	push	r17
     9f0:	cf 93       	push	r28
     9f2:	7c 01       	movw	r14, r24
     9f4:	8b 01       	movw	r16, r22
     9f6:	80 e0       	ldi	r24, 0x00	; 0
     9f8:	90 e0       	ldi	r25, 0x00	; 0
     9fa:	0e 94 c3 02 	call	0x586	; 0x586 <EEPROM_read>
     9fe:	c8 2f       	mov	r28, r24
     a00:	80 93 16 03 	sts	0x0316, r24	; 0x800316 <userCount>
     a04:	8a 30       	cpi	r24, 0x0A	; 10
     a06:	f0 f4       	brcc	.+60     	; 0xa44 <addUserToEEPROM_remote+0x5c>
     a08:	b7 01       	movw	r22, r14
     a0a:	8b e1       	ldi	r24, 0x1B	; 27
     a0c:	93 e0       	ldi	r25, 0x03	; 3
     a0e:	0e 94 d9 07 	call	0xfb2	; 0xfb2 <strcpy>
     a12:	b8 01       	movw	r22, r16
     a14:	8b e2       	ldi	r24, 0x2B	; 43
     a16:	93 e0       	ldi	r25, 0x03	; 3
     a18:	0e 94 d9 07 	call	0xfb2	; 0xfb2 <strcpy>
     a1c:	81 e0       	ldi	r24, 0x01	; 1
     a1e:	8c 0f       	add	r24, r28
     a20:	80 93 34 03 	sts	0x0334, r24	; 0x800334 <remoteUsers+0x19>
     a24:	6c 2f       	mov	r22, r28
     a26:	8b e1       	ldi	r24, 0x1B	; 27
     a28:	93 e0       	ldi	r25, 0x03	; 3
     a2a:	0e 94 ae 04 	call	0x95c	; 0x95c <writeUserToEEPROM>
     a2e:	60 91 16 03 	lds	r22, 0x0316	; 0x800316 <userCount>
     a32:	6f 5f       	subi	r22, 0xFF	; 255
     a34:	60 93 16 03 	sts	0x0316, r22	; 0x800316 <userCount>
     a38:	80 e0       	ldi	r24, 0x00	; 0
     a3a:	90 e0       	ldi	r25, 0x00	; 0
     a3c:	0e 94 bb 02 	call	0x576	; 0x576 <EEPROM_write>
     a40:	80 e0       	ldi	r24, 0x00	; 0
     a42:	01 c0       	rjmp	.+2      	; 0xa46 <addUserToEEPROM_remote+0x5e>
     a44:	81 e0       	ldi	r24, 0x01	; 1
     a46:	cf 91       	pop	r28
     a48:	1f 91       	pop	r17
     a4a:	0f 91       	pop	r16
     a4c:	ff 90       	pop	r15
     a4e:	ef 90       	pop	r14
     a50:	08 95       	ret

00000a52 <getUserFromEEPROM_remote>:
     a52:	8a 30       	cpi	r24, 0x0A	; 10
     a54:	28 f4       	brcc	.+10     	; 0xa60 <getUserFromEEPROM_remote+0xe>
     a56:	9b 01       	movw	r18, r22
     a58:	68 2f       	mov	r22, r24
     a5a:	c9 01       	movw	r24, r18
     a5c:	0e 94 d1 04 	call	0x9a2	; 0x9a2 <readUserFromEEPROM>
     a60:	08 95       	ret

00000a62 <remoteDB_init>:
     a62:	cf 93       	push	r28
     a64:	80 e0       	ldi	r24, 0x00	; 0
     a66:	90 e0       	ldi	r25, 0x00	; 0
     a68:	0e 94 c3 02 	call	0x586	; 0x586 <EEPROM_read>
     a6c:	8f 3f       	cpi	r24, 0xFF	; 255
     a6e:	39 f4       	brne	.+14     	; 0xa7e <remoteDB_init+0x1c>
     a70:	60 91 16 03 	lds	r22, 0x0316	; 0x800316 <userCount>
     a74:	80 e0       	ldi	r24, 0x00	; 0
     a76:	90 e0       	ldi	r25, 0x00	; 0
     a78:	0e 94 bb 02 	call	0x576	; 0x576 <EEPROM_write>
     a7c:	13 c0       	rjmp	.+38     	; 0xaa4 <remoteDB_init+0x42>
     a7e:	80 e0       	ldi	r24, 0x00	; 0
     a80:	90 e0       	ldi	r25, 0x00	; 0
     a82:	0e 94 c3 02 	call	0x586	; 0x586 <EEPROM_read>
     a86:	80 93 16 03 	sts	0x0316, r24	; 0x800316 <userCount>
     a8a:	88 23       	and	r24, r24
     a8c:	59 f0       	breq	.+22     	; 0xaa4 <remoteDB_init+0x42>
     a8e:	c0 e0       	ldi	r28, 0x00	; 0
     a90:	6b e1       	ldi	r22, 0x1B	; 27
     a92:	73 e0       	ldi	r23, 0x03	; 3
     a94:	8c 2f       	mov	r24, r28
     a96:	0e 94 29 05 	call	0xa52	; 0xa52 <getUserFromEEPROM_remote>
     a9a:	cf 5f       	subi	r28, 0xFF	; 255
     a9c:	80 91 16 03 	lds	r24, 0x0316	; 0x800316 <userCount>
     aa0:	c8 17       	cp	r28, r24
     aa2:	b0 f3       	brcs	.-20     	; 0xa90 <remoteDB_init+0x2e>
     aa4:	87 e6       	ldi	r24, 0x67	; 103
     aa6:	90 e0       	ldi	r25, 0x00	; 0
     aa8:	0e 94 d9 03 	call	0x7b2	; 0x7b2 <uart_init>
     aac:	cf 91       	pop	r28
     aae:	08 95       	ret

00000ab0 <displayAllUsersOnRemote>:
     ab0:	bf 92       	push	r11
     ab2:	cf 92       	push	r12
     ab4:	df 92       	push	r13
     ab6:	ef 92       	push	r14
     ab8:	ff 92       	push	r15
     aba:	0f 93       	push	r16
     abc:	1f 93       	push	r17
     abe:	cf 93       	push	r28
     ac0:	df 93       	push	r29
     ac2:	cd b7       	in	r28, 0x3d	; 61
     ac4:	de b7       	in	r29, 0x3e	; 62
     ac6:	e2 97       	sbiw	r28, 0x32	; 50
     ac8:	0f b6       	in	r0, 0x3f	; 63
     aca:	f8 94       	cli
     acc:	de bf       	out	0x3e, r29	; 62
     ace:	0f be       	out	0x3f, r0	; 63
     ad0:	cd bf       	out	0x3d, r28	; 61
     ad2:	81 e7       	ldi	r24, 0x71	; 113
     ad4:	90 e0       	ldi	r25, 0x00	; 0
     ad6:	0e 94 e4 03 	call	0x7c8	; 0x7c8 <uart_sendString>
     ada:	80 91 16 03 	lds	r24, 0x0316	; 0x800316 <userCount>
     ade:	88 23       	and	r24, r24
     ae0:	71 f1       	breq	.+92     	; 0xb3e <displayAllUsersOnRemote+0x8e>
     ae2:	10 e0       	ldi	r17, 0x00	; 0
     ae4:	0f 2e       	mov	r0, r31
     ae6:	fa e1       	ldi	r31, 0x1A	; 26
     ae8:	bf 2e       	mov	r11, r31
     aea:	f0 2d       	mov	r31, r0
     aec:	0f 2e       	mov	r0, r31
     aee:	f8 e8       	ldi	r31, 0x88	; 136
     af0:	cf 2e       	mov	r12, r31
     af2:	f0 e0       	ldi	r31, 0x00	; 0
     af4:	df 2e       	mov	r13, r31
     af6:	f0 2d       	mov	r31, r0
     af8:	02 e3       	ldi	r16, 0x32	; 50
     afa:	ce 01       	movw	r24, r28
     afc:	01 96       	adiw	r24, 0x01	; 1
     afe:	7c 01       	movw	r14, r24
     b00:	b1 9e       	mul	r11, r17
     b02:	f0 01       	movw	r30, r0
     b04:	11 24       	eor	r1, r1
     b06:	e5 5e       	subi	r30, 0xE5	; 229
     b08:	fc 4f       	sbci	r31, 0xFC	; 252
     b0a:	81 8d       	ldd	r24, Z+25	; 0x19
     b0c:	1f 92       	push	r1
     b0e:	8f 93       	push	r24
     b10:	ff 93       	push	r31
     b12:	ef 93       	push	r30
     b14:	df 92       	push	r13
     b16:	cf 92       	push	r12
     b18:	1f 92       	push	r1
     b1a:	0f 93       	push	r16
     b1c:	ff 92       	push	r15
     b1e:	ef 92       	push	r14
     b20:	0e 94 ef 07 	call	0xfde	; 0xfde <snprintf>
     b24:	c7 01       	movw	r24, r14
     b26:	0e 94 e4 03 	call	0x7c8	; 0x7c8 <uart_sendString>
     b2a:	1f 5f       	subi	r17, 0xFF	; 255
     b2c:	0f b6       	in	r0, 0x3f	; 63
     b2e:	f8 94       	cli
     b30:	de bf       	out	0x3e, r29	; 62
     b32:	0f be       	out	0x3f, r0	; 63
     b34:	cd bf       	out	0x3d, r28	; 61
     b36:	80 91 16 03 	lds	r24, 0x0316	; 0x800316 <userCount>
     b3a:	18 17       	cp	r17, r24
     b3c:	08 f3       	brcs	.-62     	; 0xb00 <displayAllUsersOnRemote+0x50>
     b3e:	e2 96       	adiw	r28, 0x32	; 50
     b40:	0f b6       	in	r0, 0x3f	; 63
     b42:	f8 94       	cli
     b44:	de bf       	out	0x3e, r29	; 62
     b46:	0f be       	out	0x3f, r0	; 63
     b48:	cd bf       	out	0x3d, r28	; 61
     b4a:	df 91       	pop	r29
     b4c:	cf 91       	pop	r28
     b4e:	1f 91       	pop	r17
     b50:	0f 91       	pop	r16
     b52:	ff 90       	pop	r15
     b54:	ef 90       	pop	r14
     b56:	df 90       	pop	r13
     b58:	cf 90       	pop	r12
     b5a:	bf 90       	pop	r11
     b5c:	08 95       	ret

00000b5e <selectUserAndLogin_remote>:
     b5e:	ef 92       	push	r14
     b60:	ff 92       	push	r15
     b62:	1f 93       	push	r17
     b64:	cf 93       	push	r28
     b66:	df 93       	push	r29
     b68:	cd b7       	in	r28, 0x3d	; 61
     b6a:	de b7       	in	r29, 0x3e	; 62
     b6c:	29 97       	sbiw	r28, 0x09	; 9
     b6e:	0f b6       	in	r0, 0x3f	; 63
     b70:	f8 94       	cli
     b72:	de bf       	out	0x3e, r29	; 62
     b74:	0f be       	out	0x3f, r0	; 63
     b76:	cd bf       	out	0x3d, r28	; 61
     b78:	82 ea       	ldi	r24, 0xA2	; 162
     b7a:	90 e0       	ldi	r25, 0x00	; 0
     b7c:	0e 94 e4 03 	call	0x7c8	; 0x7c8 <uart_sendString>
     b80:	0e 94 f3 03 	call	0x7e6	; 0x7e6 <uart_receiveByte>
     b84:	10 ed       	ldi	r17, 0xD0	; 208
     b86:	18 0f       	add	r17, r24
     b88:	81 53       	subi	r24, 0x31	; 49
     b8a:	8a 30       	cpi	r24, 0x0A	; 10
     b8c:	48 f5       	brcc	.+82     	; 0xbe0 <selectUserAndLogin_remote+0x82>
     b8e:	21 2f       	mov	r18, r17
     b90:	30 e0       	ldi	r19, 0x00	; 0
     b92:	21 50       	subi	r18, 0x01	; 1
     b94:	31 09       	sbc	r19, r1
     b96:	4a e1       	ldi	r20, 0x1A	; 26
     b98:	42 9f       	mul	r20, r18
     b9a:	c0 01       	movw	r24, r0
     b9c:	43 9f       	mul	r20, r19
     b9e:	90 0d       	add	r25, r0
     ba0:	11 24       	eor	r1, r1
     ba2:	9c 01       	movw	r18, r24
     ba4:	25 5d       	subi	r18, 0xD5	; 213
     ba6:	3c 4f       	sbci	r19, 0xFC	; 252
     ba8:	79 01       	movw	r14, r18
     baa:	c9 01       	movw	r24, r18
     bac:	0e 94 e4 03 	call	0x7c8	; 0x7c8 <uart_sendString>
     bb0:	ce 01       	movw	r24, r28
     bb2:	01 96       	adiw	r24, 0x01	; 1
     bb4:	0e 94 9d 04 	call	0x93a	; 0x93a <getPassword_remote>
     bb8:	b7 01       	movw	r22, r14
     bba:	ce 01       	movw	r24, r28
     bbc:	01 96       	adiw	r24, 0x01	; 1
     bbe:	0e 94 d0 07 	call	0xfa0	; 0xfa0 <strcmp>
     bc2:	89 2b       	or	r24, r25
     bc4:	41 f4       	brne	.+16     	; 0xbd6 <selectUserAndLogin_remote+0x78>
     bc6:	81 eb       	ldi	r24, 0xB1	; 177
     bc8:	90 e0       	ldi	r25, 0x00	; 0
     bca:	0e 94 e4 03 	call	0x7c8	; 0x7c8 <uart_sendString>
     bce:	81 e0       	ldi	r24, 0x01	; 1
     bd0:	80 93 17 03 	sts	0x0317, r24	; 0x800317 <login_flag_remote>
     bd4:	09 c0       	rjmp	.+18     	; 0xbe8 <selectUserAndLogin_remote+0x8a>
     bd6:	83 ec       	ldi	r24, 0xC3	; 195
     bd8:	90 e0       	ldi	r25, 0x00	; 0
     bda:	0e 94 e4 03 	call	0x7c8	; 0x7c8 <uart_sendString>
     bde:	04 c0       	rjmp	.+8      	; 0xbe8 <selectUserAndLogin_remote+0x8a>
     be0:	8e ed       	ldi	r24, 0xDE	; 222
     be2:	90 e0       	ldi	r25, 0x00	; 0
     be4:	0e 94 e4 03 	call	0x7c8	; 0x7c8 <uart_sendString>
     be8:	81 2f       	mov	r24, r17
     bea:	29 96       	adiw	r28, 0x09	; 9
     bec:	0f b6       	in	r0, 0x3f	; 63
     bee:	f8 94       	cli
     bf0:	de bf       	out	0x3e, r29	; 62
     bf2:	0f be       	out	0x3f, r0	; 63
     bf4:	cd bf       	out	0x3d, r28	; 61
     bf6:	df 91       	pop	r29
     bf8:	cf 91       	pop	r28
     bfa:	1f 91       	pop	r17
     bfc:	ff 90       	pop	r15
     bfe:	ef 90       	pop	r14
     c00:	08 95       	ret

00000c02 <loginAck_remote>:
     c02:	80 91 17 03 	lds	r24, 0x0317	; 0x800317 <login_flag_remote>
     c06:	10 92 17 03 	sts	0x0317, r1	; 0x800317 <login_flag_remote>
     c0a:	08 95       	ret

00000c0c <logout_remote>:
     c0c:	10 92 17 03 	sts	0x0317, r1	; 0x800317 <login_flag_remote>
     c10:	08 95       	ret

00000c12 <remote_admin_register>:
void lamp_menu(void);
void AC_menu(void);
void remote_menu_Service(void);

void remote_admin_register()
{
     c12:	cf 93       	push	r28
     c14:	df 93       	push	r29
     c16:	cd b7       	in	r28, 0x3d	; 61
     c18:	de b7       	in	r29, 0x3e	; 62
     c1a:	69 97       	sbiw	r28, 0x19	; 25
     c1c:	0f b6       	in	r0, 0x3f	; 63
     c1e:	f8 94       	cli
     c20:	de bf       	out	0x3e, r29	; 62
     c22:	0f be       	out	0x3f, r0	; 63
     c24:	cd bf       	out	0x3d, r28	; 61
	static u8 hasRun;
	if (EEPROM_read(EEPROM_USER_COUNT_ADDR)>0)
     c26:	80 e0       	ldi	r24, 0x00	; 0
     c28:	90 e0       	ldi	r25, 0x00	; 0
     c2a:	0e 94 c3 02 	call	0x586	; 0x586 <EEPROM_read>
     c2e:	18 16       	cp	r1, r24
     c30:	19 06       	cpc	r1, r25
     c32:	4c f1       	brlt	.+82     	; 0xc86 <remote_admin_register+0x74>
	{return;}
	
		//remoteDB_init();

		uart_sendString("Register as an admin\n");
     c34:	89 ef       	ldi	r24, 0xF9	; 249
     c36:	90 e0       	ldi	r25, 0x00	; 0
     c38:	0e 94 e4 03 	call	0x7c8	; 0x7c8 <uart_sendString>
		uart_sendString("Enter username: ");
     c3c:	8f e0       	ldi	r24, 0x0F	; 15
     c3e:	91 e0       	ldi	r25, 0x01	; 1
     c40:	0e 94 e4 03 	call	0x7c8	; 0x7c8 <uart_sendString>
		u8 username[16];
		uart_receiveString(&username);
     c44:	ce 01       	movw	r24, r28
     c46:	01 96       	adiw	r24, 0x01	; 1
     c48:	0e 94 f7 03 	call	0x7ee	; 0x7ee <uart_receiveString>
		u8 password[9];
		getPassword_remote(&password);  // Get password from user
     c4c:	ce 01       	movw	r24, r28
     c4e:	41 96       	adiw	r24, 0x11	; 17
     c50:	0e 94 9d 04 	call	0x93a	; 0x93a <getPassword_remote>
		u8 registrationResult = addUserToEEPROM_remote(&username,&password);
     c54:	be 01       	movw	r22, r28
     c56:	6f 5e       	subi	r22, 0xEF	; 239
     c58:	7f 4f       	sbci	r23, 0xFF	; 255
     c5a:	ce 01       	movw	r24, r28
     c5c:	01 96       	adiw	r24, 0x01	; 1
     c5e:	0e 94 f4 04 	call	0x9e8	; 0x9e8 <addUserToEEPROM_remote>
		if (registrationResult == REGISTRATION_SUCCESS)
     c62:	81 11       	cpse	r24, r1
     c64:	05 c0       	rjmp	.+10     	; 0xc70 <remote_admin_register+0x5e>
		{
			// Registration successful
			uart_sendString("Registration successful\n");
     c66:	80 e2       	ldi	r24, 0x20	; 32
     c68:	91 e0       	ldi	r25, 0x01	; 1
     c6a:	0e 94 e4 03 	call	0x7c8	; 0x7c8 <uart_sendString>
     c6e:	0b c0       	rjmp	.+22     	; 0xc86 <remote_admin_register+0x74>
		}
		else if (registrationResult == ERROR_USER_ARRAY_FULL)
     c70:	81 30       	cpi	r24, 0x01	; 1
     c72:	29 f4       	brne	.+10     	; 0xc7e <remote_admin_register+0x6c>
		{
			// User array is full
			uart_sendString("Error: User array is full\n");
     c74:	89 e3       	ldi	r24, 0x39	; 57
     c76:	91 e0       	ldi	r25, 0x01	; 1
     c78:	0e 94 e4 03 	call	0x7c8	; 0x7c8 <uart_sendString>
     c7c:	04 c0       	rjmp	.+8      	; 0xc86 <remote_admin_register+0x74>
		}
		else
		{
			// Other error occurred during EEPROM write
			uart_sendString("Error: EEPROM write failed\n");
     c7e:	84 e5       	ldi	r24, 0x54	; 84
     c80:	91 e0       	ldi	r25, 0x01	; 1
     c82:	0e 94 e4 03 	call	0x7c8	; 0x7c8 <uart_sendString>
		}
		hasRun = 1;
	
}
     c86:	69 96       	adiw	r28, 0x19	; 25
     c88:	0f b6       	in	r0, 0x3f	; 63
     c8a:	f8 94       	cli
     c8c:	de bf       	out	0x3e, r29	; 62
     c8e:	0f be       	out	0x3f, r0	; 63
     c90:	cd bf       	out	0x3d, r28	; 61
     c92:	df 91       	pop	r29
     c94:	cf 91       	pop	r28
     c96:	08 95       	ret

00000c98 <registerUserRemote>:

void registerUserRemote()
{
     c98:	cf 93       	push	r28
     c9a:	df 93       	push	r29
     c9c:	cd b7       	in	r28, 0x3d	; 61
     c9e:	de b7       	in	r29, 0x3e	; 62
     ca0:	69 97       	sbiw	r28, 0x19	; 25
     ca2:	0f b6       	in	r0, 0x3f	; 63
     ca4:	f8 94       	cli
     ca6:	de bf       	out	0x3e, r29	; 62
     ca8:	0f be       	out	0x3f, r0	; 63
     caa:	cd bf       	out	0x3d, r28	; 61
	u8 registrationResult = ERROR_USER_ARRAY_FULL;
	uart_sendString("Register a new user\n");
     cac:	80 e7       	ldi	r24, 0x70	; 112
     cae:	91 e0       	ldi	r25, 0x01	; 1
     cb0:	0e 94 e4 03 	call	0x7c8	; 0x7c8 <uart_sendString>
	uart_sendString("Enter username: ");
     cb4:	8f e0       	ldi	r24, 0x0F	; 15
     cb6:	91 e0       	ldi	r25, 0x01	; 1
     cb8:	0e 94 e4 03 	call	0x7c8	; 0x7c8 <uart_sendString>
	u8 username[16];
	uart_receiveString(&username);
     cbc:	ce 01       	movw	r24, r28
     cbe:	01 96       	adiw	r24, 0x01	; 1
     cc0:	0e 94 f7 03 	call	0x7ee	; 0x7ee <uart_receiveString>
	u8 password[9];
	getPassword_remote(&password);  // Get password from user
     cc4:	ce 01       	movw	r24, r28
     cc6:	41 96       	adiw	r24, 0x11	; 17
     cc8:	0e 94 9d 04 	call	0x93a	; 0x93a <getPassword_remote>
	registrationResult = addUserToEEPROM_remote(&username,&password);
     ccc:	be 01       	movw	r22, r28
     cce:	6f 5e       	subi	r22, 0xEF	; 239
     cd0:	7f 4f       	sbci	r23, 0xFF	; 255
     cd2:	ce 01       	movw	r24, r28
     cd4:	01 96       	adiw	r24, 0x01	; 1
     cd6:	0e 94 f4 04 	call	0x9e8	; 0x9e8 <addUserToEEPROM_remote>
	if (registrationResult == REGISTRATION_SUCCESS)
     cda:	81 11       	cpse	r24, r1
     cdc:	05 c0       	rjmp	.+10     	; 0xce8 <registerUserRemote+0x50>
	{
		// Registration successful
		uart_sendString("Registration successful\n");
     cde:	80 e2       	ldi	r24, 0x20	; 32
     ce0:	91 e0       	ldi	r25, 0x01	; 1
     ce2:	0e 94 e4 03 	call	0x7c8	; 0x7c8 <uart_sendString>
     ce6:	0b c0       	rjmp	.+22     	; 0xcfe <registerUserRemote+0x66>
	}
	else if (registrationResult == ERROR_USER_ARRAY_FULL)
     ce8:	81 30       	cpi	r24, 0x01	; 1
     cea:	29 f4       	brne	.+10     	; 0xcf6 <registerUserRemote+0x5e>
	{
		// User array is full
		uart_sendString("Error: User array is full\n");
     cec:	89 e3       	ldi	r24, 0x39	; 57
     cee:	91 e0       	ldi	r25, 0x01	; 1
     cf0:	0e 94 e4 03 	call	0x7c8	; 0x7c8 <uart_sendString>
     cf4:	04 c0       	rjmp	.+8      	; 0xcfe <registerUserRemote+0x66>
	}
	else
	{
		// Other error occurred during EEPROM write
		uart_sendString("Error: EEPROM write failed\n");
     cf6:	84 e5       	ldi	r24, 0x54	; 84
     cf8:	91 e0       	ldi	r25, 0x01	; 1
     cfa:	0e 94 e4 03 	call	0x7c8	; 0x7c8 <uart_sendString>
	}
}
     cfe:	69 96       	adiw	r28, 0x19	; 25
     d00:	0f b6       	in	r0, 0x3f	; 63
     d02:	f8 94       	cli
     d04:	de bf       	out	0x3e, r29	; 62
     d06:	0f be       	out	0x3f, r0	; 63
     d08:	cd bf       	out	0x3d, r28	; 61
     d0a:	df 91       	pop	r29
     d0c:	cf 91       	pop	r28
     d0e:	08 95       	ret

00000d10 <registerUserLocal>:

void registerUserLocal()
{
     d10:	cf 93       	push	r28
     d12:	df 93       	push	r29
     d14:	cd b7       	in	r28, 0x3d	; 61
     d16:	de b7       	in	r29, 0x3e	; 62
     d18:	69 97       	sbiw	r28, 0x19	; 25
     d1a:	0f b6       	in	r0, 0x3f	; 63
     d1c:	f8 94       	cli
     d1e:	de bf       	out	0x3e, r29	; 62
     d20:	0f be       	out	0x3f, r0	; 63
     d22:	cd bf       	out	0x3d, r28	; 61
	uart_sendString("Register a new user\n");
     d24:	80 e7       	ldi	r24, 0x70	; 112
     d26:	91 e0       	ldi	r25, 0x01	; 1
     d28:	0e 94 e4 03 	call	0x7c8	; 0x7c8 <uart_sendString>
	uart_sendString("Enter username: ");
     d2c:	8f e0       	ldi	r24, 0x0F	; 15
     d2e:	91 e0       	ldi	r25, 0x01	; 1
     d30:	0e 94 e4 03 	call	0x7c8	; 0x7c8 <uart_sendString>
	u8 username[16];
	uart_receiveString(&username);
     d34:	ce 01       	movw	r24, r28
     d36:	01 96       	adiw	r24, 0x01	; 1
     d38:	0e 94 f7 03 	call	0x7ee	; 0x7ee <uart_receiveString>
	u8 password[9];
	getPassword_remote(&password);  // Get password from user
     d3c:	ce 01       	movw	r24, r28
     d3e:	41 96       	adiw	r24, 0x11	; 17
     d40:	0e 94 9d 04 	call	0x93a	; 0x93a <getPassword_remote>
	u8 registrationResult = addUserToEEPROM_local(&username,&password);
     d44:	be 01       	movw	r22, r28
     d46:	6f 5e       	subi	r22, 0xEF	; 239
     d48:	7f 4f       	sbci	r23, 0xFF	; 255
     d4a:	ce 01       	movw	r24, r28
     d4c:	01 96       	adiw	r24, 0x01	; 1
     d4e:	0e 94 46 04 	call	0x88c	; 0x88c <addUserToEEPROM_local>
	if (registrationResult == REGISTRATION_SUCCESS)
     d52:	81 11       	cpse	r24, r1
     d54:	05 c0       	rjmp	.+10     	; 0xd60 <registerUserLocal+0x50>
	{
		// Registration successful
		uart_sendString("Registration successful\n");
     d56:	80 e2       	ldi	r24, 0x20	; 32
     d58:	91 e0       	ldi	r25, 0x01	; 1
     d5a:	0e 94 e4 03 	call	0x7c8	; 0x7c8 <uart_sendString>
     d5e:	0b c0       	rjmp	.+22     	; 0xd76 <registerUserLocal+0x66>
	}
	else if (registrationResult == ERROR_USER_ARRAY_FULL)
     d60:	81 30       	cpi	r24, 0x01	; 1
     d62:	29 f4       	brne	.+10     	; 0xd6e <registerUserLocal+0x5e>
	{
		// User array is full
		uart_sendString("Error: User array is full\n");
     d64:	89 e3       	ldi	r24, 0x39	; 57
     d66:	91 e0       	ldi	r25, 0x01	; 1
     d68:	0e 94 e4 03 	call	0x7c8	; 0x7c8 <uart_sendString>
     d6c:	04 c0       	rjmp	.+8      	; 0xd76 <registerUserLocal+0x66>
	}
	else
	{
		// Other error occurred during EEPROM write
		uart_sendString("Error: EEPROM write failed\n");
     d6e:	84 e5       	ldi	r24, 0x54	; 84
     d70:	91 e0       	ldi	r25, 0x01	; 1
     d72:	0e 94 e4 03 	call	0x7c8	; 0x7c8 <uart_sendString>
	}
}
     d76:	69 96       	adiw	r28, 0x19	; 25
     d78:	0f b6       	in	r0, 0x3f	; 63
     d7a:	f8 94       	cli
     d7c:	de bf       	out	0x3e, r29	; 62
     d7e:	0f be       	out	0x3f, r0	; 63
     d80:	cd bf       	out	0x3d, r28	; 61
     d82:	df 91       	pop	r29
     d84:	cf 91       	pop	r28
     d86:	08 95       	ret

00000d88 <lamp_menu>:
	}
}

void lamp_menu()
{
	uart_sendString("Lamp Menu\n");
     d88:	85 e8       	ldi	r24, 0x85	; 133
     d8a:	91 e0       	ldi	r25, 0x01	; 1
     d8c:	0e 94 e4 03 	call	0x7c8	; 0x7c8 <uart_sendString>
	uart_sendString("Choose lamp number you want to turn on/off: \n");
     d90:	80 e9       	ldi	r24, 0x90	; 144
     d92:	91 e0       	ldi	r25, 0x01	; 1
     d94:	0e 94 e4 03 	call	0x7c8	; 0x7c8 <uart_sendString>
	uart_sendString("1. Lamp1\n");
     d98:	8e eb       	ldi	r24, 0xBE	; 190
     d9a:	91 e0       	ldi	r25, 0x01	; 1
     d9c:	0e 94 e4 03 	call	0x7c8	; 0x7c8 <uart_sendString>
	uart_sendString("2. Lamp2\n");
     da0:	88 ec       	ldi	r24, 0xC8	; 200
     da2:	91 e0       	ldi	r25, 0x01	; 1
     da4:	0e 94 e4 03 	call	0x7c8	; 0x7c8 <uart_sendString>
	uart_sendString("3. Lamp3\n");
     da8:	82 ed       	ldi	r24, 0xD2	; 210
     daa:	91 e0       	ldi	r25, 0x01	; 1
     dac:	0e 94 e4 03 	call	0x7c8	; 0x7c8 <uart_sendString>
	uart_sendString("4. Lamp4\n");
     db0:	8c ed       	ldi	r24, 0xDC	; 220
     db2:	91 e0       	ldi	r25, 0x01	; 1
     db4:	0e 94 e4 03 	call	0x7c8	; 0x7c8 <uart_sendString>
	uart_sendString("5. Lamp5\n");
     db8:	86 ee       	ldi	r24, 0xE6	; 230
     dba:	91 e0       	ldi	r25, 0x01	; 1
     dbc:	0e 94 e4 03 	call	0x7c8	; 0x7c8 <uart_sendString>
	uart_sendString("6. Dimmer\n");
     dc0:	80 ef       	ldi	r24, 0xF0	; 240
     dc2:	91 e0       	ldi	r25, 0x01	; 1
     dc4:	0e 94 e4 03 	call	0x7c8	; 0x7c8 <uart_sendString>
	u8 lamp_choice = uart_receiveByte() - '0';
     dc8:	0e 94 f3 03 	call	0x7e6	; 0x7e6 <uart_receiveByte>
	switch (lamp_choice)
     dcc:	80 53       	subi	r24, 0x30	; 48
     dce:	83 30       	cpi	r24, 0x03	; 3
     dd0:	a1 f0       	breq	.+40     	; 0xdfa <lamp_menu+0x72>
     dd2:	28 f4       	brcc	.+10     	; 0xdde <lamp_menu+0x56>
     dd4:	81 30       	cpi	r24, 0x01	; 1
     dd6:	49 f0       	breq	.+18     	; 0xdea <lamp_menu+0x62>
     dd8:	82 30       	cpi	r24, 0x02	; 2
     dda:	59 f0       	breq	.+22     	; 0xdf2 <lamp_menu+0x6a>
     ddc:	1d c0       	rjmp	.+58     	; 0xe18 <lamp_menu+0x90>
     dde:	85 30       	cpi	r24, 0x05	; 5
     de0:	a1 f0       	breq	.+40     	; 0xe0a <lamp_menu+0x82>
     de2:	78 f0       	brcs	.+30     	; 0xe02 <lamp_menu+0x7a>
     de4:	86 30       	cpi	r24, 0x06	; 6
     de6:	a9 f0       	breq	.+42     	; 0xe12 <lamp_menu+0x8a>
     de8:	17 c0       	rjmp	.+46     	; 0xe18 <lamp_menu+0x90>
	{
		case 1:
			// Lamp1 ON/OFF (Toggle LED1 Status)
			lamp_toggle(LAMP1_ID);
     dea:	81 e0       	ldi	r24, 0x01	; 1
     dec:	0e 94 5d 00 	call	0xba	; 0xba <lamp_toggle>
		break;
     df0:	08 95       	ret
		case 2:
			// LED2 ON/OFF (Toggle LED2 Status)
			lamp_toggle(LAMP2_ID);
     df2:	82 e0       	ldi	r24, 0x02	; 2
     df4:	0e 94 5d 00 	call	0xba	; 0xba <lamp_toggle>
		break;
     df8:	08 95       	ret
		case 3:
			// LED3 ON/OFF (Toggle LED3 Status)
			lamp_toggle(LAMP3_ID);
     dfa:	83 e0       	ldi	r24, 0x03	; 3
     dfc:	0e 94 5d 00 	call	0xba	; 0xba <lamp_toggle>
		break;
     e00:	08 95       	ret
		case 4:
			// LED4 ON/OFF (Toggle LED4 Status)
			lamp_toggle(LAMP4_ID);
     e02:	84 e0       	ldi	r24, 0x04	; 4
     e04:	0e 94 5d 00 	call	0xba	; 0xba <lamp_toggle>
		break;
     e08:	08 95       	ret
		case 5:
			// LED5 ON/OFF (Toggle LED5 Status)
			lamp_toggle(LAMP5_ID);
     e0a:	85 e0       	ldi	r24, 0x05	; 5
     e0c:	0e 94 5d 00 	call	0xba	; 0xba <lamp_toggle>
		break;
     e10:	08 95       	ret
		case 6:
			// DimmerLED ON/OFF (Toggle DimmerLED Status)
			Lamp_Service_Dim_Toggle();
     e12:	0e 94 3f 04 	call	0x87e	; 0x87e <Lamp_Service_Dim_Toggle>
		break;
     e16:	08 95       	ret
		default:
			uart_sendString("Invalid choice. Please try again.\n");
     e18:	8b ef       	ldi	r24, 0xFB	; 251
     e1a:	91 e0       	ldi	r25, 0x01	; 1
     e1c:	0e 94 e4 03 	call	0x7c8	; 0x7c8 <uart_sendString>
     e20:	08 95       	ret

00000e22 <AC_menu>:
	}
}

void AC_menu()
{
	uart_sendString("AC Menu");
     e22:	89 e2       	ldi	r24, 0x29	; 41
     e24:	92 e0       	ldi	r25, 0x02	; 2
     e26:	0e 94 e4 03 	call	0x7c8	; 0x7c8 <uart_sendString>
	AC ac_struct = airConditioner_Status();
     e2a:	0e 94 1f 04 	call	0x83e	; 0x83e <airConditioner_Status>
	uart_sendString(ac_struct.AC_Status ? "[ON]" : "[OFF]");
     e2e:	61 11       	cpse	r22, r1
     e30:	1a c0       	rjmp	.+52     	; 0xe66 <AC_menu+0x44>
     e32:	0e c0       	rjmp	.+28     	; 0xe50 <AC_menu+0x2e>
	uart_sendString("Press (T) to turn ");
	uart_sendString(ac_struct.AC_Status ? "[OFF]" : "[ON]");
     e34:	0e 94 e4 03 	call	0x7c8	; 0x7c8 <uart_sendString>
	u8 key = uart_receiveByte();
     e38:	0e 94 f3 03 	call	0x7e6	; 0x7e6 <uart_receiveByte>
	if (key == 'T')
     e3c:	84 35       	cpi	r24, 0x54	; 84
     e3e:	19 f4       	brne	.+6      	; 0xe46 <AC_menu+0x24>
	{
		airConditioner_Toggle();
     e40:	0e 94 18 04 	call	0x830	; 0x830 <airConditioner_Toggle>
     e44:	08 95       	ret
	}
	else
	{
		uart_sendString("Wrong Input");
     e46:	81 e3       	ldi	r24, 0x31	; 49
     e48:	92 e0       	ldi	r25, 0x02	; 2
     e4a:	0e 94 e4 03 	call	0x7c8	; 0x7c8 <uart_sendString>
	}
}
     e4e:	08 95       	ret

void AC_menu()
{
	uart_sendString("AC Menu");
	AC ac_struct = airConditioner_Status();
	uart_sendString(ac_struct.AC_Status ? "[ON]" : "[OFF]");
     e50:	8e e1       	ldi	r24, 0x1E	; 30
     e52:	92 e0       	ldi	r25, 0x02	; 2
     e54:	0e 94 e4 03 	call	0x7c8	; 0x7c8 <uart_sendString>
	uart_sendString("Press (T) to turn ");
     e58:	8d e3       	ldi	r24, 0x3D	; 61
     e5a:	92 e0       	ldi	r25, 0x02	; 2
     e5c:	0e 94 e4 03 	call	0x7c8	; 0x7c8 <uart_sendString>
	uart_sendString(ac_struct.AC_Status ? "[OFF]" : "[ON]");
     e60:	84 e2       	ldi	r24, 0x24	; 36
     e62:	92 e0       	ldi	r25, 0x02	; 2
     e64:	e7 cf       	rjmp	.-50     	; 0xe34 <AC_menu+0x12>

void AC_menu()
{
	uart_sendString("AC Menu");
	AC ac_struct = airConditioner_Status();
	uart_sendString(ac_struct.AC_Status ? "[ON]" : "[OFF]");
     e66:	84 e2       	ldi	r24, 0x24	; 36
     e68:	92 e0       	ldi	r25, 0x02	; 2
     e6a:	0e 94 e4 03 	call	0x7c8	; 0x7c8 <uart_sendString>
	uart_sendString("Press (T) to turn ");
     e6e:	8d e3       	ldi	r24, 0x3D	; 61
     e70:	92 e0       	ldi	r25, 0x02	; 2
     e72:	0e 94 e4 03 	call	0x7c8	; 0x7c8 <uart_sendString>
	uart_sendString(ac_struct.AC_Status ? "[OFF]" : "[ON]");
     e76:	8e e1       	ldi	r24, 0x1E	; 30
     e78:	92 e0       	ldi	r25, 0x02	; 2
     e7a:	dc cf       	rjmp	.-72     	; 0xe34 <AC_menu+0x12>

00000e7c <remote_Menu_User>:
}

void remote_Menu_User()
{
	while (1) {
		uart_sendString("User Menu:\n");
     e7c:	80 e5       	ldi	r24, 0x50	; 80
     e7e:	92 e0       	ldi	r25, 0x02	; 2
     e80:	0e 94 e4 03 	call	0x7c8	; 0x7c8 <uart_sendString>
		uart_sendString("1. Lamps\n");
     e84:	8c e5       	ldi	r24, 0x5C	; 92
     e86:	92 e0       	ldi	r25, 0x02	; 2
     e88:	0e 94 e4 03 	call	0x7c8	; 0x7c8 <uart_sendString>
		uart_sendString("2. AC\n");
     e8c:	86 e6       	ldi	r24, 0x66	; 102
     e8e:	92 e0       	ldi	r25, 0x02	; 2
     e90:	0e 94 e4 03 	call	0x7c8	; 0x7c8 <uart_sendString>
		uart_sendString("3. Logout\n");
     e94:	8d e6       	ldi	r24, 0x6D	; 109
     e96:	92 e0       	ldi	r25, 0x02	; 2
     e98:	0e 94 e4 03 	call	0x7c8	; 0x7c8 <uart_sendString>

		u8 userChoice = uart_receiveByte() - '0';
     e9c:	0e 94 f3 03 	call	0x7e6	; 0x7e6 <uart_receiveByte>

		switch (userChoice) {
     ea0:	80 53       	subi	r24, 0x30	; 48
     ea2:	82 33       	cpi	r24, 0x32	; 50
     ea4:	39 f0       	breq	.+14     	; 0xeb4 <remote_Menu_User+0x38>
     ea6:	83 33       	cpi	r24, 0x33	; 51
     ea8:	41 f0       	breq	.+16     	; 0xeba <remote_Menu_User+0x3e>
     eaa:	81 33       	cpi	r24, 0x31	; 49
     eac:	59 f4       	brne	.+22     	; 0xec4 <remote_Menu_User+0x48>
			case '1':
			lamp_menu();
     eae:	0e 94 c4 06 	call	0xd88	; 0xd88 <lamp_menu>
			break;
     eb2:	e4 cf       	rjmp	.-56     	; 0xe7c <remote_Menu_User>
			case '2':
			AC_menu();
     eb4:	0e 94 11 07 	call	0xe22	; 0xe22 <AC_menu>
			break;
     eb8:	e1 cf       	rjmp	.-62     	; 0xe7c <remote_Menu_User>
			case '3':
			logout_remote();
     eba:	0e 94 06 06 	call	0xc0c	; 0xc0c <logout_remote>
			remote_login_menu();
     ebe:	0e 94 67 07 	call	0xece	; 0xece <remote_login_menu>
			return;
     ec2:	08 95       	ret
			default:
			uart_sendString("Invalid choice. Please try again.\n");
     ec4:	8b ef       	ldi	r24, 0xFB	; 251
     ec6:	91 e0       	ldi	r25, 0x01	; 1
     ec8:	0e 94 e4 03 	call	0x7c8	; 0x7c8 <uart_sendString>
			continue;
     ecc:	d7 cf       	rjmp	.-82     	; 0xe7c <remote_Menu_User>

00000ece <remote_login_menu>:
		uart_sendString("Error: EEPROM write failed\n");
	}
}

void remote_login_menu()
{
     ece:	cf 93       	push	r28
     ed0:	df 93       	push	r29
     ed2:	cd b7       	in	r28, 0x3d	; 61
     ed4:	de b7       	in	r29, 0x3e	; 62
     ed6:	6a 97       	sbiw	r28, 0x1a	; 26
     ed8:	0f b6       	in	r0, 0x3f	; 63
     eda:	f8 94       	cli
     edc:	de bf       	out	0x3e, r29	; 62
     ede:	0f be       	out	0x3f, r0	; 63
     ee0:	cd bf       	out	0x3d, r28	; 61
	user_remote registeredUsers;
	displayAllUsersOnRemote();
     ee2:	0e 94 58 05 	call	0xab0	; 0xab0 <displayAllUsersOnRemote>
	u8 id = selectUserAndLogin_remote();
     ee6:	0e 94 af 05 	call	0xb5e	; 0xb5e <selectUserAndLogin_remote>
	getUserFromEEPROM_remote(id,&registeredUsers);
     eea:	be 01       	movw	r22, r28
     eec:	6f 5f       	subi	r22, 0xFF	; 255
     eee:	7f 4f       	sbci	r23, 0xFF	; 255
     ef0:	0e 94 29 05 	call	0xa52	; 0xa52 <getUserFromEEPROM_remote>
	if (registeredUsers.id == 1 && loginAck_remote())
     ef4:	8a 8d       	ldd	r24, Y+26	; 0x1a
     ef6:	81 30       	cpi	r24, 0x01	; 1
     ef8:	39 f4       	brne	.+14     	; 0xf08 <remote_login_menu+0x3a>
     efa:	0e 94 01 06 	call	0xc02	; 0xc02 <loginAck_remote>
     efe:	88 23       	and	r24, r24
     f00:	19 f0       	breq	.+6      	; 0xf08 <remote_login_menu+0x3a>
	{
		remote_Menu_Admin();
     f02:	0e 94 92 07 	call	0xf24	; 0xf24 <remote_Menu_Admin>
     f06:	05 c0       	rjmp	.+10     	; 0xf12 <remote_login_menu+0x44>
	}
	else
	{
		//login
		if (loginAck_remote())
     f08:	0e 94 01 06 	call	0xc02	; 0xc02 <loginAck_remote>
     f0c:	81 11       	cpse	r24, r1
		{
			remote_Menu_User();
     f0e:	0e 94 3e 07 	call	0xe7c	; 0xe7c <remote_Menu_User>
		}
		else{
			//do nothing
		}
	}
}
     f12:	6a 96       	adiw	r28, 0x1a	; 26
     f14:	0f b6       	in	r0, 0x3f	; 63
     f16:	f8 94       	cli
     f18:	de bf       	out	0x3e, r29	; 62
     f1a:	0f be       	out	0x3f, r0	; 63
     f1c:	cd bf       	out	0x3d, r28	; 61
     f1e:	df 91       	pop	r29
     f20:	cf 91       	pop	r28
     f22:	08 95       	ret

00000f24 <remote_Menu_Admin>:
}

void remote_Menu_Admin()
{
	while (1) {
		uart_sendString("Admin Menu:\n");
     f24:	88 e7       	ldi	r24, 0x78	; 120
     f26:	92 e0       	ldi	r25, 0x02	; 2
     f28:	0e 94 e4 03 	call	0x7c8	; 0x7c8 <uart_sendString>
		uart_sendString("1. Register User (Remote)\n");
     f2c:	85 e8       	ldi	r24, 0x85	; 133
     f2e:	92 e0       	ldi	r25, 0x02	; 2
     f30:	0e 94 e4 03 	call	0x7c8	; 0x7c8 <uart_sendString>
		uart_sendString("2. Register User (Local)\n");
     f34:	80 ea       	ldi	r24, 0xA0	; 160
     f36:	92 e0       	ldi	r25, 0x02	; 2
     f38:	0e 94 e4 03 	call	0x7c8	; 0x7c8 <uart_sendString>
		uart_sendString("3. Control Door (Open/Close)\n");
     f3c:	8a eb       	ldi	r24, 0xBA	; 186
     f3e:	92 e0       	ldi	r25, 0x02	; 2
     f40:	0e 94 e4 03 	call	0x7c8	; 0x7c8 <uart_sendString>
		uart_sendString("4. Logout\n");
     f44:	88 ed       	ldi	r24, 0xD8	; 216
     f46:	92 e0       	ldi	r25, 0x02	; 2
     f48:	0e 94 e4 03 	call	0x7c8	; 0x7c8 <uart_sendString>

		u8 adminChoice = uart_receiveByte() - '0';
     f4c:	0e 94 f3 03 	call	0x7e6	; 0x7e6 <uart_receiveByte>

		switch (adminChoice) {
     f50:	80 53       	subi	r24, 0x30	; 48
     f52:	82 33       	cpi	r24, 0x32	; 50
     f54:	61 f0       	breq	.+24     	; 0xf6e <remote_Menu_Admin+0x4a>
     f56:	18 f4       	brcc	.+6      	; 0xf5e <remote_Menu_Admin+0x3a>
     f58:	81 33       	cpi	r24, 0x31	; 49
     f5a:	31 f0       	breq	.+12     	; 0xf68 <remote_Menu_Admin+0x44>
     f5c:	13 c0       	rjmp	.+38     	; 0xf84 <remote_Menu_Admin+0x60>
     f5e:	83 33       	cpi	r24, 0x33	; 51
     f60:	49 f0       	breq	.+18     	; 0xf74 <remote_Menu_Admin+0x50>
     f62:	84 33       	cpi	r24, 0x34	; 52
     f64:	51 f0       	breq	.+20     	; 0xf7a <remote_Menu_Admin+0x56>
     f66:	0e c0       	rjmp	.+28     	; 0xf84 <remote_Menu_Admin+0x60>
			case '1':
				registerUserRemote();
     f68:	0e 94 4c 06 	call	0xc98	; 0xc98 <registerUserRemote>
			break;
     f6c:	db cf       	rjmp	.-74     	; 0xf24 <remote_Menu_Admin>
			case '2':
				registerUserLocal();
     f6e:	0e 94 88 06 	call	0xd10	; 0xd10 <registerUserLocal>
			break;
     f72:	d8 cf       	rjmp	.-80     	; 0xf24 <remote_Menu_Admin>
			case '3':
				doorToggle();
     f74:	0e 94 35 04 	call	0x86a	; 0x86a <doorToggle>
			break;
     f78:	d5 cf       	rjmp	.-86     	; 0xf24 <remote_Menu_Admin>
			case '4':
				logout_remote();
     f7a:	0e 94 06 06 	call	0xc0c	; 0xc0c <logout_remote>
				remote_login_menu();
     f7e:	0e 94 67 07 	call	0xece	; 0xece <remote_login_menu>
			return;
     f82:	08 95       	ret
			default:
				uart_sendString("Invalid choice. Please try again.\n");
     f84:	8b ef       	ldi	r24, 0xFB	; 251
     f86:	91 e0       	ldi	r25, 0x01	; 1
     f88:	0e 94 e4 03 	call	0x7c8	; 0x7c8 <uart_sendString>
			continue;
     f8c:	cb cf       	rjmp	.-106    	; 0xf24 <remote_Menu_Admin>

00000f8e <remote_menu_Service>:
	}
}

void remote_menu_Service(void)
{
	uart_sendString("System is starting in remote mode\n");
     f8e:	83 ee       	ldi	r24, 0xE3	; 227
     f90:	92 e0       	ldi	r25, 0x02	; 2
     f92:	0e 94 e4 03 	call	0x7c8	; 0x7c8 <uart_sendString>
	remote_admin_register();
     f96:	0e 94 09 06 	call	0xc12	; 0xc12 <remote_admin_register>
	remote_login_menu();
     f9a:	0e 94 67 07 	call	0xece	; 0xece <remote_login_menu>
     f9e:	08 95       	ret

00000fa0 <strcmp>:
     fa0:	fb 01       	movw	r30, r22
     fa2:	dc 01       	movw	r26, r24
     fa4:	8d 91       	ld	r24, X+
     fa6:	01 90       	ld	r0, Z+
     fa8:	80 19       	sub	r24, r0
     faa:	01 10       	cpse	r0, r1
     fac:	d9 f3       	breq	.-10     	; 0xfa4 <strcmp+0x4>
     fae:	99 0b       	sbc	r25, r25
     fb0:	08 95       	ret

00000fb2 <strcpy>:
     fb2:	fb 01       	movw	r30, r22
     fb4:	dc 01       	movw	r26, r24
     fb6:	01 90       	ld	r0, Z+
     fb8:	0d 92       	st	X+, r0
     fba:	00 20       	and	r0, r0
     fbc:	e1 f7       	brne	.-8      	; 0xfb6 <strcpy+0x4>
     fbe:	08 95       	ret

00000fc0 <strncpy>:
     fc0:	fb 01       	movw	r30, r22
     fc2:	dc 01       	movw	r26, r24
     fc4:	41 50       	subi	r20, 0x01	; 1
     fc6:	50 40       	sbci	r21, 0x00	; 0
     fc8:	48 f0       	brcs	.+18     	; 0xfdc <strncpy+0x1c>
     fca:	01 90       	ld	r0, Z+
     fcc:	0d 92       	st	X+, r0
     fce:	00 20       	and	r0, r0
     fd0:	c9 f7       	brne	.-14     	; 0xfc4 <strncpy+0x4>
     fd2:	01 c0       	rjmp	.+2      	; 0xfd6 <strncpy+0x16>
     fd4:	1d 92       	st	X+, r1
     fd6:	41 50       	subi	r20, 0x01	; 1
     fd8:	50 40       	sbci	r21, 0x00	; 0
     fda:	e0 f7       	brcc	.-8      	; 0xfd4 <strncpy+0x14>
     fdc:	08 95       	ret

00000fde <snprintf>:
     fde:	ae e0       	ldi	r26, 0x0E	; 14
     fe0:	b0 e0       	ldi	r27, 0x00	; 0
     fe2:	e5 ef       	ldi	r30, 0xF5	; 245
     fe4:	f7 e0       	ldi	r31, 0x07	; 7
     fe6:	0c 94 be 0a 	jmp	0x157c	; 0x157c <__prologue_saves__+0x1c>
     fea:	0d 89       	ldd	r16, Y+21	; 0x15
     fec:	1e 89       	ldd	r17, Y+22	; 0x16
     fee:	8f 89       	ldd	r24, Y+23	; 0x17
     ff0:	98 8d       	ldd	r25, Y+24	; 0x18
     ff2:	26 e0       	ldi	r18, 0x06	; 6
     ff4:	2c 83       	std	Y+4, r18	; 0x04
     ff6:	1a 83       	std	Y+2, r17	; 0x02
     ff8:	09 83       	std	Y+1, r16	; 0x01
     ffa:	97 ff       	sbrs	r25, 7
     ffc:	02 c0       	rjmp	.+4      	; 0x1002 <snprintf+0x24>
     ffe:	80 e0       	ldi	r24, 0x00	; 0
    1000:	90 e8       	ldi	r25, 0x80	; 128
    1002:	01 97       	sbiw	r24, 0x01	; 1
    1004:	9e 83       	std	Y+6, r25	; 0x06
    1006:	8d 83       	std	Y+5, r24	; 0x05
    1008:	ae 01       	movw	r20, r28
    100a:	45 5e       	subi	r20, 0xE5	; 229
    100c:	5f 4f       	sbci	r21, 0xFF	; 255
    100e:	69 8d       	ldd	r22, Y+25	; 0x19
    1010:	7a 8d       	ldd	r23, Y+26	; 0x1a
    1012:	ce 01       	movw	r24, r28
    1014:	01 96       	adiw	r24, 0x01	; 1
    1016:	0e 94 1f 08 	call	0x103e	; 0x103e <vfprintf>
    101a:	4d 81       	ldd	r20, Y+5	; 0x05
    101c:	5e 81       	ldd	r21, Y+6	; 0x06
    101e:	57 fd       	sbrc	r21, 7
    1020:	0a c0       	rjmp	.+20     	; 0x1036 <snprintf+0x58>
    1022:	2f 81       	ldd	r18, Y+7	; 0x07
    1024:	38 85       	ldd	r19, Y+8	; 0x08
    1026:	42 17       	cp	r20, r18
    1028:	53 07       	cpc	r21, r19
    102a:	0c f4       	brge	.+2      	; 0x102e <snprintf+0x50>
    102c:	9a 01       	movw	r18, r20
    102e:	f8 01       	movw	r30, r16
    1030:	e2 0f       	add	r30, r18
    1032:	f3 1f       	adc	r31, r19
    1034:	10 82       	st	Z, r1
    1036:	2e 96       	adiw	r28, 0x0e	; 14
    1038:	e4 e0       	ldi	r30, 0x04	; 4
    103a:	0c 94 da 0a 	jmp	0x15b4	; 0x15b4 <__epilogue_restores__+0x1c>

0000103e <vfprintf>:
    103e:	ab e0       	ldi	r26, 0x0B	; 11
    1040:	b0 e0       	ldi	r27, 0x00	; 0
    1042:	e5 e2       	ldi	r30, 0x25	; 37
    1044:	f8 e0       	ldi	r31, 0x08	; 8
    1046:	0c 94 b0 0a 	jmp	0x1560	; 0x1560 <__prologue_saves__>
    104a:	6c 01       	movw	r12, r24
    104c:	7b 01       	movw	r14, r22
    104e:	8a 01       	movw	r16, r20
    1050:	fc 01       	movw	r30, r24
    1052:	17 82       	std	Z+7, r1	; 0x07
    1054:	16 82       	std	Z+6, r1	; 0x06
    1056:	83 81       	ldd	r24, Z+3	; 0x03
    1058:	81 ff       	sbrs	r24, 1
    105a:	cc c1       	rjmp	.+920    	; 0x13f4 <vfprintf+0x3b6>
    105c:	ce 01       	movw	r24, r28
    105e:	01 96       	adiw	r24, 0x01	; 1
    1060:	3c 01       	movw	r6, r24
    1062:	f6 01       	movw	r30, r12
    1064:	93 81       	ldd	r25, Z+3	; 0x03
    1066:	f7 01       	movw	r30, r14
    1068:	93 fd       	sbrc	r25, 3
    106a:	85 91       	lpm	r24, Z+
    106c:	93 ff       	sbrs	r25, 3
    106e:	81 91       	ld	r24, Z+
    1070:	7f 01       	movw	r14, r30
    1072:	88 23       	and	r24, r24
    1074:	09 f4       	brne	.+2      	; 0x1078 <vfprintf+0x3a>
    1076:	ba c1       	rjmp	.+884    	; 0x13ec <vfprintf+0x3ae>
    1078:	85 32       	cpi	r24, 0x25	; 37
    107a:	39 f4       	brne	.+14     	; 0x108a <vfprintf+0x4c>
    107c:	93 fd       	sbrc	r25, 3
    107e:	85 91       	lpm	r24, Z+
    1080:	93 ff       	sbrs	r25, 3
    1082:	81 91       	ld	r24, Z+
    1084:	7f 01       	movw	r14, r30
    1086:	85 32       	cpi	r24, 0x25	; 37
    1088:	29 f4       	brne	.+10     	; 0x1094 <vfprintf+0x56>
    108a:	b6 01       	movw	r22, r12
    108c:	90 e0       	ldi	r25, 0x00	; 0
    108e:	0e 94 16 0a 	call	0x142c	; 0x142c <fputc>
    1092:	e7 cf       	rjmp	.-50     	; 0x1062 <vfprintf+0x24>
    1094:	91 2c       	mov	r9, r1
    1096:	21 2c       	mov	r2, r1
    1098:	31 2c       	mov	r3, r1
    109a:	ff e1       	ldi	r31, 0x1F	; 31
    109c:	f3 15       	cp	r31, r3
    109e:	d8 f0       	brcs	.+54     	; 0x10d6 <vfprintf+0x98>
    10a0:	8b 32       	cpi	r24, 0x2B	; 43
    10a2:	79 f0       	breq	.+30     	; 0x10c2 <vfprintf+0x84>
    10a4:	38 f4       	brcc	.+14     	; 0x10b4 <vfprintf+0x76>
    10a6:	80 32       	cpi	r24, 0x20	; 32
    10a8:	79 f0       	breq	.+30     	; 0x10c8 <vfprintf+0x8a>
    10aa:	83 32       	cpi	r24, 0x23	; 35
    10ac:	a1 f4       	brne	.+40     	; 0x10d6 <vfprintf+0x98>
    10ae:	23 2d       	mov	r18, r3
    10b0:	20 61       	ori	r18, 0x10	; 16
    10b2:	1d c0       	rjmp	.+58     	; 0x10ee <vfprintf+0xb0>
    10b4:	8d 32       	cpi	r24, 0x2D	; 45
    10b6:	61 f0       	breq	.+24     	; 0x10d0 <vfprintf+0x92>
    10b8:	80 33       	cpi	r24, 0x30	; 48
    10ba:	69 f4       	brne	.+26     	; 0x10d6 <vfprintf+0x98>
    10bc:	23 2d       	mov	r18, r3
    10be:	21 60       	ori	r18, 0x01	; 1
    10c0:	16 c0       	rjmp	.+44     	; 0x10ee <vfprintf+0xb0>
    10c2:	83 2d       	mov	r24, r3
    10c4:	82 60       	ori	r24, 0x02	; 2
    10c6:	38 2e       	mov	r3, r24
    10c8:	e3 2d       	mov	r30, r3
    10ca:	e4 60       	ori	r30, 0x04	; 4
    10cc:	3e 2e       	mov	r3, r30
    10ce:	2a c0       	rjmp	.+84     	; 0x1124 <vfprintf+0xe6>
    10d0:	f3 2d       	mov	r31, r3
    10d2:	f8 60       	ori	r31, 0x08	; 8
    10d4:	1d c0       	rjmp	.+58     	; 0x1110 <vfprintf+0xd2>
    10d6:	37 fc       	sbrc	r3, 7
    10d8:	2d c0       	rjmp	.+90     	; 0x1134 <vfprintf+0xf6>
    10da:	20 ed       	ldi	r18, 0xD0	; 208
    10dc:	28 0f       	add	r18, r24
    10de:	2a 30       	cpi	r18, 0x0A	; 10
    10e0:	40 f0       	brcs	.+16     	; 0x10f2 <vfprintf+0xb4>
    10e2:	8e 32       	cpi	r24, 0x2E	; 46
    10e4:	b9 f4       	brne	.+46     	; 0x1114 <vfprintf+0xd6>
    10e6:	36 fc       	sbrc	r3, 6
    10e8:	81 c1       	rjmp	.+770    	; 0x13ec <vfprintf+0x3ae>
    10ea:	23 2d       	mov	r18, r3
    10ec:	20 64       	ori	r18, 0x40	; 64
    10ee:	32 2e       	mov	r3, r18
    10f0:	19 c0       	rjmp	.+50     	; 0x1124 <vfprintf+0xe6>
    10f2:	36 fe       	sbrs	r3, 6
    10f4:	06 c0       	rjmp	.+12     	; 0x1102 <vfprintf+0xc4>
    10f6:	8a e0       	ldi	r24, 0x0A	; 10
    10f8:	98 9e       	mul	r9, r24
    10fa:	20 0d       	add	r18, r0
    10fc:	11 24       	eor	r1, r1
    10fe:	92 2e       	mov	r9, r18
    1100:	11 c0       	rjmp	.+34     	; 0x1124 <vfprintf+0xe6>
    1102:	ea e0       	ldi	r30, 0x0A	; 10
    1104:	2e 9e       	mul	r2, r30
    1106:	20 0d       	add	r18, r0
    1108:	11 24       	eor	r1, r1
    110a:	22 2e       	mov	r2, r18
    110c:	f3 2d       	mov	r31, r3
    110e:	f0 62       	ori	r31, 0x20	; 32
    1110:	3f 2e       	mov	r3, r31
    1112:	08 c0       	rjmp	.+16     	; 0x1124 <vfprintf+0xe6>
    1114:	8c 36       	cpi	r24, 0x6C	; 108
    1116:	21 f4       	brne	.+8      	; 0x1120 <vfprintf+0xe2>
    1118:	83 2d       	mov	r24, r3
    111a:	80 68       	ori	r24, 0x80	; 128
    111c:	38 2e       	mov	r3, r24
    111e:	02 c0       	rjmp	.+4      	; 0x1124 <vfprintf+0xe6>
    1120:	88 36       	cpi	r24, 0x68	; 104
    1122:	41 f4       	brne	.+16     	; 0x1134 <vfprintf+0xf6>
    1124:	f7 01       	movw	r30, r14
    1126:	93 fd       	sbrc	r25, 3
    1128:	85 91       	lpm	r24, Z+
    112a:	93 ff       	sbrs	r25, 3
    112c:	81 91       	ld	r24, Z+
    112e:	7f 01       	movw	r14, r30
    1130:	81 11       	cpse	r24, r1
    1132:	b3 cf       	rjmp	.-154    	; 0x109a <vfprintf+0x5c>
    1134:	98 2f       	mov	r25, r24
    1136:	9f 7d       	andi	r25, 0xDF	; 223
    1138:	95 54       	subi	r25, 0x45	; 69
    113a:	93 30       	cpi	r25, 0x03	; 3
    113c:	28 f4       	brcc	.+10     	; 0x1148 <vfprintf+0x10a>
    113e:	0c 5f       	subi	r16, 0xFC	; 252
    1140:	1f 4f       	sbci	r17, 0xFF	; 255
    1142:	9f e3       	ldi	r25, 0x3F	; 63
    1144:	99 83       	std	Y+1, r25	; 0x01
    1146:	0d c0       	rjmp	.+26     	; 0x1162 <vfprintf+0x124>
    1148:	83 36       	cpi	r24, 0x63	; 99
    114a:	31 f0       	breq	.+12     	; 0x1158 <vfprintf+0x11a>
    114c:	83 37       	cpi	r24, 0x73	; 115
    114e:	71 f0       	breq	.+28     	; 0x116c <vfprintf+0x12e>
    1150:	83 35       	cpi	r24, 0x53	; 83
    1152:	09 f0       	breq	.+2      	; 0x1156 <vfprintf+0x118>
    1154:	59 c0       	rjmp	.+178    	; 0x1208 <vfprintf+0x1ca>
    1156:	21 c0       	rjmp	.+66     	; 0x119a <vfprintf+0x15c>
    1158:	f8 01       	movw	r30, r16
    115a:	80 81       	ld	r24, Z
    115c:	89 83       	std	Y+1, r24	; 0x01
    115e:	0e 5f       	subi	r16, 0xFE	; 254
    1160:	1f 4f       	sbci	r17, 0xFF	; 255
    1162:	88 24       	eor	r8, r8
    1164:	83 94       	inc	r8
    1166:	91 2c       	mov	r9, r1
    1168:	53 01       	movw	r10, r6
    116a:	13 c0       	rjmp	.+38     	; 0x1192 <vfprintf+0x154>
    116c:	28 01       	movw	r4, r16
    116e:	f2 e0       	ldi	r31, 0x02	; 2
    1170:	4f 0e       	add	r4, r31
    1172:	51 1c       	adc	r5, r1
    1174:	f8 01       	movw	r30, r16
    1176:	a0 80       	ld	r10, Z
    1178:	b1 80       	ldd	r11, Z+1	; 0x01
    117a:	36 fe       	sbrs	r3, 6
    117c:	03 c0       	rjmp	.+6      	; 0x1184 <vfprintf+0x146>
    117e:	69 2d       	mov	r22, r9
    1180:	70 e0       	ldi	r23, 0x00	; 0
    1182:	02 c0       	rjmp	.+4      	; 0x1188 <vfprintf+0x14a>
    1184:	6f ef       	ldi	r22, 0xFF	; 255
    1186:	7f ef       	ldi	r23, 0xFF	; 255
    1188:	c5 01       	movw	r24, r10
    118a:	0e 94 0b 0a 	call	0x1416	; 0x1416 <strnlen>
    118e:	4c 01       	movw	r8, r24
    1190:	82 01       	movw	r16, r4
    1192:	f3 2d       	mov	r31, r3
    1194:	ff 77       	andi	r31, 0x7F	; 127
    1196:	3f 2e       	mov	r3, r31
    1198:	16 c0       	rjmp	.+44     	; 0x11c6 <vfprintf+0x188>
    119a:	28 01       	movw	r4, r16
    119c:	22 e0       	ldi	r18, 0x02	; 2
    119e:	42 0e       	add	r4, r18
    11a0:	51 1c       	adc	r5, r1
    11a2:	f8 01       	movw	r30, r16
    11a4:	a0 80       	ld	r10, Z
    11a6:	b1 80       	ldd	r11, Z+1	; 0x01
    11a8:	36 fe       	sbrs	r3, 6
    11aa:	03 c0       	rjmp	.+6      	; 0x11b2 <vfprintf+0x174>
    11ac:	69 2d       	mov	r22, r9
    11ae:	70 e0       	ldi	r23, 0x00	; 0
    11b0:	02 c0       	rjmp	.+4      	; 0x11b6 <vfprintf+0x178>
    11b2:	6f ef       	ldi	r22, 0xFF	; 255
    11b4:	7f ef       	ldi	r23, 0xFF	; 255
    11b6:	c5 01       	movw	r24, r10
    11b8:	0e 94 00 0a 	call	0x1400	; 0x1400 <strnlen_P>
    11bc:	4c 01       	movw	r8, r24
    11be:	f3 2d       	mov	r31, r3
    11c0:	f0 68       	ori	r31, 0x80	; 128
    11c2:	3f 2e       	mov	r3, r31
    11c4:	82 01       	movw	r16, r4
    11c6:	33 fc       	sbrc	r3, 3
    11c8:	1b c0       	rjmp	.+54     	; 0x1200 <vfprintf+0x1c2>
    11ca:	82 2d       	mov	r24, r2
    11cc:	90 e0       	ldi	r25, 0x00	; 0
    11ce:	88 16       	cp	r8, r24
    11d0:	99 06       	cpc	r9, r25
    11d2:	b0 f4       	brcc	.+44     	; 0x1200 <vfprintf+0x1c2>
    11d4:	b6 01       	movw	r22, r12
    11d6:	80 e2       	ldi	r24, 0x20	; 32
    11d8:	90 e0       	ldi	r25, 0x00	; 0
    11da:	0e 94 16 0a 	call	0x142c	; 0x142c <fputc>
    11de:	2a 94       	dec	r2
    11e0:	f4 cf       	rjmp	.-24     	; 0x11ca <vfprintf+0x18c>
    11e2:	f5 01       	movw	r30, r10
    11e4:	37 fc       	sbrc	r3, 7
    11e6:	85 91       	lpm	r24, Z+
    11e8:	37 fe       	sbrs	r3, 7
    11ea:	81 91       	ld	r24, Z+
    11ec:	5f 01       	movw	r10, r30
    11ee:	b6 01       	movw	r22, r12
    11f0:	90 e0       	ldi	r25, 0x00	; 0
    11f2:	0e 94 16 0a 	call	0x142c	; 0x142c <fputc>
    11f6:	21 10       	cpse	r2, r1
    11f8:	2a 94       	dec	r2
    11fa:	21 e0       	ldi	r18, 0x01	; 1
    11fc:	82 1a       	sub	r8, r18
    11fe:	91 08       	sbc	r9, r1
    1200:	81 14       	cp	r8, r1
    1202:	91 04       	cpc	r9, r1
    1204:	71 f7       	brne	.-36     	; 0x11e2 <vfprintf+0x1a4>
    1206:	e8 c0       	rjmp	.+464    	; 0x13d8 <vfprintf+0x39a>
    1208:	84 36       	cpi	r24, 0x64	; 100
    120a:	11 f0       	breq	.+4      	; 0x1210 <vfprintf+0x1d2>
    120c:	89 36       	cpi	r24, 0x69	; 105
    120e:	41 f5       	brne	.+80     	; 0x1260 <vfprintf+0x222>
    1210:	f8 01       	movw	r30, r16
    1212:	37 fe       	sbrs	r3, 7
    1214:	07 c0       	rjmp	.+14     	; 0x1224 <vfprintf+0x1e6>
    1216:	60 81       	ld	r22, Z
    1218:	71 81       	ldd	r23, Z+1	; 0x01
    121a:	82 81       	ldd	r24, Z+2	; 0x02
    121c:	93 81       	ldd	r25, Z+3	; 0x03
    121e:	0c 5f       	subi	r16, 0xFC	; 252
    1220:	1f 4f       	sbci	r17, 0xFF	; 255
    1222:	08 c0       	rjmp	.+16     	; 0x1234 <vfprintf+0x1f6>
    1224:	60 81       	ld	r22, Z
    1226:	71 81       	ldd	r23, Z+1	; 0x01
    1228:	07 2e       	mov	r0, r23
    122a:	00 0c       	add	r0, r0
    122c:	88 0b       	sbc	r24, r24
    122e:	99 0b       	sbc	r25, r25
    1230:	0e 5f       	subi	r16, 0xFE	; 254
    1232:	1f 4f       	sbci	r17, 0xFF	; 255
    1234:	f3 2d       	mov	r31, r3
    1236:	ff 76       	andi	r31, 0x6F	; 111
    1238:	3f 2e       	mov	r3, r31
    123a:	97 ff       	sbrs	r25, 7
    123c:	09 c0       	rjmp	.+18     	; 0x1250 <vfprintf+0x212>
    123e:	90 95       	com	r25
    1240:	80 95       	com	r24
    1242:	70 95       	com	r23
    1244:	61 95       	neg	r22
    1246:	7f 4f       	sbci	r23, 0xFF	; 255
    1248:	8f 4f       	sbci	r24, 0xFF	; 255
    124a:	9f 4f       	sbci	r25, 0xFF	; 255
    124c:	f0 68       	ori	r31, 0x80	; 128
    124e:	3f 2e       	mov	r3, r31
    1250:	2a e0       	ldi	r18, 0x0A	; 10
    1252:	30 e0       	ldi	r19, 0x00	; 0
    1254:	a3 01       	movw	r20, r6
    1256:	0e 94 52 0a 	call	0x14a4	; 0x14a4 <__ultoa_invert>
    125a:	88 2e       	mov	r8, r24
    125c:	86 18       	sub	r8, r6
    125e:	45 c0       	rjmp	.+138    	; 0x12ea <vfprintf+0x2ac>
    1260:	85 37       	cpi	r24, 0x75	; 117
    1262:	31 f4       	brne	.+12     	; 0x1270 <vfprintf+0x232>
    1264:	23 2d       	mov	r18, r3
    1266:	2f 7e       	andi	r18, 0xEF	; 239
    1268:	b2 2e       	mov	r11, r18
    126a:	2a e0       	ldi	r18, 0x0A	; 10
    126c:	30 e0       	ldi	r19, 0x00	; 0
    126e:	25 c0       	rjmp	.+74     	; 0x12ba <vfprintf+0x27c>
    1270:	93 2d       	mov	r25, r3
    1272:	99 7f       	andi	r25, 0xF9	; 249
    1274:	b9 2e       	mov	r11, r25
    1276:	8f 36       	cpi	r24, 0x6F	; 111
    1278:	c1 f0       	breq	.+48     	; 0x12aa <vfprintf+0x26c>
    127a:	18 f4       	brcc	.+6      	; 0x1282 <vfprintf+0x244>
    127c:	88 35       	cpi	r24, 0x58	; 88
    127e:	79 f0       	breq	.+30     	; 0x129e <vfprintf+0x260>
    1280:	b5 c0       	rjmp	.+362    	; 0x13ec <vfprintf+0x3ae>
    1282:	80 37       	cpi	r24, 0x70	; 112
    1284:	19 f0       	breq	.+6      	; 0x128c <vfprintf+0x24e>
    1286:	88 37       	cpi	r24, 0x78	; 120
    1288:	21 f0       	breq	.+8      	; 0x1292 <vfprintf+0x254>
    128a:	b0 c0       	rjmp	.+352    	; 0x13ec <vfprintf+0x3ae>
    128c:	e9 2f       	mov	r30, r25
    128e:	e0 61       	ori	r30, 0x10	; 16
    1290:	be 2e       	mov	r11, r30
    1292:	b4 fe       	sbrs	r11, 4
    1294:	0d c0       	rjmp	.+26     	; 0x12b0 <vfprintf+0x272>
    1296:	fb 2d       	mov	r31, r11
    1298:	f4 60       	ori	r31, 0x04	; 4
    129a:	bf 2e       	mov	r11, r31
    129c:	09 c0       	rjmp	.+18     	; 0x12b0 <vfprintf+0x272>
    129e:	34 fe       	sbrs	r3, 4
    12a0:	0a c0       	rjmp	.+20     	; 0x12b6 <vfprintf+0x278>
    12a2:	29 2f       	mov	r18, r25
    12a4:	26 60       	ori	r18, 0x06	; 6
    12a6:	b2 2e       	mov	r11, r18
    12a8:	06 c0       	rjmp	.+12     	; 0x12b6 <vfprintf+0x278>
    12aa:	28 e0       	ldi	r18, 0x08	; 8
    12ac:	30 e0       	ldi	r19, 0x00	; 0
    12ae:	05 c0       	rjmp	.+10     	; 0x12ba <vfprintf+0x27c>
    12b0:	20 e1       	ldi	r18, 0x10	; 16
    12b2:	30 e0       	ldi	r19, 0x00	; 0
    12b4:	02 c0       	rjmp	.+4      	; 0x12ba <vfprintf+0x27c>
    12b6:	20 e1       	ldi	r18, 0x10	; 16
    12b8:	32 e0       	ldi	r19, 0x02	; 2
    12ba:	f8 01       	movw	r30, r16
    12bc:	b7 fe       	sbrs	r11, 7
    12be:	07 c0       	rjmp	.+14     	; 0x12ce <vfprintf+0x290>
    12c0:	60 81       	ld	r22, Z
    12c2:	71 81       	ldd	r23, Z+1	; 0x01
    12c4:	82 81       	ldd	r24, Z+2	; 0x02
    12c6:	93 81       	ldd	r25, Z+3	; 0x03
    12c8:	0c 5f       	subi	r16, 0xFC	; 252
    12ca:	1f 4f       	sbci	r17, 0xFF	; 255
    12cc:	06 c0       	rjmp	.+12     	; 0x12da <vfprintf+0x29c>
    12ce:	60 81       	ld	r22, Z
    12d0:	71 81       	ldd	r23, Z+1	; 0x01
    12d2:	80 e0       	ldi	r24, 0x00	; 0
    12d4:	90 e0       	ldi	r25, 0x00	; 0
    12d6:	0e 5f       	subi	r16, 0xFE	; 254
    12d8:	1f 4f       	sbci	r17, 0xFF	; 255
    12da:	a3 01       	movw	r20, r6
    12dc:	0e 94 52 0a 	call	0x14a4	; 0x14a4 <__ultoa_invert>
    12e0:	88 2e       	mov	r8, r24
    12e2:	86 18       	sub	r8, r6
    12e4:	fb 2d       	mov	r31, r11
    12e6:	ff 77       	andi	r31, 0x7F	; 127
    12e8:	3f 2e       	mov	r3, r31
    12ea:	36 fe       	sbrs	r3, 6
    12ec:	0d c0       	rjmp	.+26     	; 0x1308 <vfprintf+0x2ca>
    12ee:	23 2d       	mov	r18, r3
    12f0:	2e 7f       	andi	r18, 0xFE	; 254
    12f2:	a2 2e       	mov	r10, r18
    12f4:	89 14       	cp	r8, r9
    12f6:	58 f4       	brcc	.+22     	; 0x130e <vfprintf+0x2d0>
    12f8:	34 fe       	sbrs	r3, 4
    12fa:	0b c0       	rjmp	.+22     	; 0x1312 <vfprintf+0x2d4>
    12fc:	32 fc       	sbrc	r3, 2
    12fe:	09 c0       	rjmp	.+18     	; 0x1312 <vfprintf+0x2d4>
    1300:	83 2d       	mov	r24, r3
    1302:	8e 7e       	andi	r24, 0xEE	; 238
    1304:	a8 2e       	mov	r10, r24
    1306:	05 c0       	rjmp	.+10     	; 0x1312 <vfprintf+0x2d4>
    1308:	b8 2c       	mov	r11, r8
    130a:	a3 2c       	mov	r10, r3
    130c:	03 c0       	rjmp	.+6      	; 0x1314 <vfprintf+0x2d6>
    130e:	b8 2c       	mov	r11, r8
    1310:	01 c0       	rjmp	.+2      	; 0x1314 <vfprintf+0x2d6>
    1312:	b9 2c       	mov	r11, r9
    1314:	a4 fe       	sbrs	r10, 4
    1316:	0f c0       	rjmp	.+30     	; 0x1336 <vfprintf+0x2f8>
    1318:	fe 01       	movw	r30, r28
    131a:	e8 0d       	add	r30, r8
    131c:	f1 1d       	adc	r31, r1
    131e:	80 81       	ld	r24, Z
    1320:	80 33       	cpi	r24, 0x30	; 48
    1322:	21 f4       	brne	.+8      	; 0x132c <vfprintf+0x2ee>
    1324:	9a 2d       	mov	r25, r10
    1326:	99 7e       	andi	r25, 0xE9	; 233
    1328:	a9 2e       	mov	r10, r25
    132a:	09 c0       	rjmp	.+18     	; 0x133e <vfprintf+0x300>
    132c:	a2 fe       	sbrs	r10, 2
    132e:	06 c0       	rjmp	.+12     	; 0x133c <vfprintf+0x2fe>
    1330:	b3 94       	inc	r11
    1332:	b3 94       	inc	r11
    1334:	04 c0       	rjmp	.+8      	; 0x133e <vfprintf+0x300>
    1336:	8a 2d       	mov	r24, r10
    1338:	86 78       	andi	r24, 0x86	; 134
    133a:	09 f0       	breq	.+2      	; 0x133e <vfprintf+0x300>
    133c:	b3 94       	inc	r11
    133e:	a3 fc       	sbrc	r10, 3
    1340:	11 c0       	rjmp	.+34     	; 0x1364 <vfprintf+0x326>
    1342:	a0 fe       	sbrs	r10, 0
    1344:	06 c0       	rjmp	.+12     	; 0x1352 <vfprintf+0x314>
    1346:	b2 14       	cp	r11, r2
    1348:	88 f4       	brcc	.+34     	; 0x136c <vfprintf+0x32e>
    134a:	28 0c       	add	r2, r8
    134c:	92 2c       	mov	r9, r2
    134e:	9b 18       	sub	r9, r11
    1350:	0e c0       	rjmp	.+28     	; 0x136e <vfprintf+0x330>
    1352:	b2 14       	cp	r11, r2
    1354:	60 f4       	brcc	.+24     	; 0x136e <vfprintf+0x330>
    1356:	b6 01       	movw	r22, r12
    1358:	80 e2       	ldi	r24, 0x20	; 32
    135a:	90 e0       	ldi	r25, 0x00	; 0
    135c:	0e 94 16 0a 	call	0x142c	; 0x142c <fputc>
    1360:	b3 94       	inc	r11
    1362:	f7 cf       	rjmp	.-18     	; 0x1352 <vfprintf+0x314>
    1364:	b2 14       	cp	r11, r2
    1366:	18 f4       	brcc	.+6      	; 0x136e <vfprintf+0x330>
    1368:	2b 18       	sub	r2, r11
    136a:	02 c0       	rjmp	.+4      	; 0x1370 <vfprintf+0x332>
    136c:	98 2c       	mov	r9, r8
    136e:	21 2c       	mov	r2, r1
    1370:	a4 fe       	sbrs	r10, 4
    1372:	10 c0       	rjmp	.+32     	; 0x1394 <vfprintf+0x356>
    1374:	b6 01       	movw	r22, r12
    1376:	80 e3       	ldi	r24, 0x30	; 48
    1378:	90 e0       	ldi	r25, 0x00	; 0
    137a:	0e 94 16 0a 	call	0x142c	; 0x142c <fputc>
    137e:	a2 fe       	sbrs	r10, 2
    1380:	17 c0       	rjmp	.+46     	; 0x13b0 <vfprintf+0x372>
    1382:	a1 fc       	sbrc	r10, 1
    1384:	03 c0       	rjmp	.+6      	; 0x138c <vfprintf+0x34e>
    1386:	88 e7       	ldi	r24, 0x78	; 120
    1388:	90 e0       	ldi	r25, 0x00	; 0
    138a:	02 c0       	rjmp	.+4      	; 0x1390 <vfprintf+0x352>
    138c:	88 e5       	ldi	r24, 0x58	; 88
    138e:	90 e0       	ldi	r25, 0x00	; 0
    1390:	b6 01       	movw	r22, r12
    1392:	0c c0       	rjmp	.+24     	; 0x13ac <vfprintf+0x36e>
    1394:	8a 2d       	mov	r24, r10
    1396:	86 78       	andi	r24, 0x86	; 134
    1398:	59 f0       	breq	.+22     	; 0x13b0 <vfprintf+0x372>
    139a:	a1 fe       	sbrs	r10, 1
    139c:	02 c0       	rjmp	.+4      	; 0x13a2 <vfprintf+0x364>
    139e:	8b e2       	ldi	r24, 0x2B	; 43
    13a0:	01 c0       	rjmp	.+2      	; 0x13a4 <vfprintf+0x366>
    13a2:	80 e2       	ldi	r24, 0x20	; 32
    13a4:	a7 fc       	sbrc	r10, 7
    13a6:	8d e2       	ldi	r24, 0x2D	; 45
    13a8:	b6 01       	movw	r22, r12
    13aa:	90 e0       	ldi	r25, 0x00	; 0
    13ac:	0e 94 16 0a 	call	0x142c	; 0x142c <fputc>
    13b0:	89 14       	cp	r8, r9
    13b2:	38 f4       	brcc	.+14     	; 0x13c2 <vfprintf+0x384>
    13b4:	b6 01       	movw	r22, r12
    13b6:	80 e3       	ldi	r24, 0x30	; 48
    13b8:	90 e0       	ldi	r25, 0x00	; 0
    13ba:	0e 94 16 0a 	call	0x142c	; 0x142c <fputc>
    13be:	9a 94       	dec	r9
    13c0:	f7 cf       	rjmp	.-18     	; 0x13b0 <vfprintf+0x372>
    13c2:	8a 94       	dec	r8
    13c4:	f3 01       	movw	r30, r6
    13c6:	e8 0d       	add	r30, r8
    13c8:	f1 1d       	adc	r31, r1
    13ca:	80 81       	ld	r24, Z
    13cc:	b6 01       	movw	r22, r12
    13ce:	90 e0       	ldi	r25, 0x00	; 0
    13d0:	0e 94 16 0a 	call	0x142c	; 0x142c <fputc>
    13d4:	81 10       	cpse	r8, r1
    13d6:	f5 cf       	rjmp	.-22     	; 0x13c2 <vfprintf+0x384>
    13d8:	22 20       	and	r2, r2
    13da:	09 f4       	brne	.+2      	; 0x13de <vfprintf+0x3a0>
    13dc:	42 ce       	rjmp	.-892    	; 0x1062 <vfprintf+0x24>
    13de:	b6 01       	movw	r22, r12
    13e0:	80 e2       	ldi	r24, 0x20	; 32
    13e2:	90 e0       	ldi	r25, 0x00	; 0
    13e4:	0e 94 16 0a 	call	0x142c	; 0x142c <fputc>
    13e8:	2a 94       	dec	r2
    13ea:	f6 cf       	rjmp	.-20     	; 0x13d8 <vfprintf+0x39a>
    13ec:	f6 01       	movw	r30, r12
    13ee:	86 81       	ldd	r24, Z+6	; 0x06
    13f0:	97 81       	ldd	r25, Z+7	; 0x07
    13f2:	02 c0       	rjmp	.+4      	; 0x13f8 <vfprintf+0x3ba>
    13f4:	8f ef       	ldi	r24, 0xFF	; 255
    13f6:	9f ef       	ldi	r25, 0xFF	; 255
    13f8:	2b 96       	adiw	r28, 0x0b	; 11
    13fa:	e2 e1       	ldi	r30, 0x12	; 18
    13fc:	0c 94 cc 0a 	jmp	0x1598	; 0x1598 <__epilogue_restores__>

00001400 <strnlen_P>:
    1400:	fc 01       	movw	r30, r24
    1402:	05 90       	lpm	r0, Z+
    1404:	61 50       	subi	r22, 0x01	; 1
    1406:	70 40       	sbci	r23, 0x00	; 0
    1408:	01 10       	cpse	r0, r1
    140a:	d8 f7       	brcc	.-10     	; 0x1402 <strnlen_P+0x2>
    140c:	80 95       	com	r24
    140e:	90 95       	com	r25
    1410:	8e 0f       	add	r24, r30
    1412:	9f 1f       	adc	r25, r31
    1414:	08 95       	ret

00001416 <strnlen>:
    1416:	fc 01       	movw	r30, r24
    1418:	61 50       	subi	r22, 0x01	; 1
    141a:	70 40       	sbci	r23, 0x00	; 0
    141c:	01 90       	ld	r0, Z+
    141e:	01 10       	cpse	r0, r1
    1420:	d8 f7       	brcc	.-10     	; 0x1418 <strnlen+0x2>
    1422:	80 95       	com	r24
    1424:	90 95       	com	r25
    1426:	8e 0f       	add	r24, r30
    1428:	9f 1f       	adc	r25, r31
    142a:	08 95       	ret

0000142c <fputc>:
    142c:	0f 93       	push	r16
    142e:	1f 93       	push	r17
    1430:	cf 93       	push	r28
    1432:	df 93       	push	r29
    1434:	fb 01       	movw	r30, r22
    1436:	23 81       	ldd	r18, Z+3	; 0x03
    1438:	21 fd       	sbrc	r18, 1
    143a:	03 c0       	rjmp	.+6      	; 0x1442 <fputc+0x16>
    143c:	8f ef       	ldi	r24, 0xFF	; 255
    143e:	9f ef       	ldi	r25, 0xFF	; 255
    1440:	2c c0       	rjmp	.+88     	; 0x149a <fputc+0x6e>
    1442:	22 ff       	sbrs	r18, 2
    1444:	16 c0       	rjmp	.+44     	; 0x1472 <fputc+0x46>
    1446:	46 81       	ldd	r20, Z+6	; 0x06
    1448:	57 81       	ldd	r21, Z+7	; 0x07
    144a:	24 81       	ldd	r18, Z+4	; 0x04
    144c:	35 81       	ldd	r19, Z+5	; 0x05
    144e:	42 17       	cp	r20, r18
    1450:	53 07       	cpc	r21, r19
    1452:	44 f4       	brge	.+16     	; 0x1464 <fputc+0x38>
    1454:	a0 81       	ld	r26, Z
    1456:	b1 81       	ldd	r27, Z+1	; 0x01
    1458:	9d 01       	movw	r18, r26
    145a:	2f 5f       	subi	r18, 0xFF	; 255
    145c:	3f 4f       	sbci	r19, 0xFF	; 255
    145e:	31 83       	std	Z+1, r19	; 0x01
    1460:	20 83       	st	Z, r18
    1462:	8c 93       	st	X, r24
    1464:	26 81       	ldd	r18, Z+6	; 0x06
    1466:	37 81       	ldd	r19, Z+7	; 0x07
    1468:	2f 5f       	subi	r18, 0xFF	; 255
    146a:	3f 4f       	sbci	r19, 0xFF	; 255
    146c:	37 83       	std	Z+7, r19	; 0x07
    146e:	26 83       	std	Z+6, r18	; 0x06
    1470:	14 c0       	rjmp	.+40     	; 0x149a <fputc+0x6e>
    1472:	8b 01       	movw	r16, r22
    1474:	ec 01       	movw	r28, r24
    1476:	fb 01       	movw	r30, r22
    1478:	00 84       	ldd	r0, Z+8	; 0x08
    147a:	f1 85       	ldd	r31, Z+9	; 0x09
    147c:	e0 2d       	mov	r30, r0
    147e:	09 95       	icall
    1480:	89 2b       	or	r24, r25
    1482:	e1 f6       	brne	.-72     	; 0x143c <fputc+0x10>
    1484:	d8 01       	movw	r26, r16
    1486:	16 96       	adiw	r26, 0x06	; 6
    1488:	8d 91       	ld	r24, X+
    148a:	9c 91       	ld	r25, X
    148c:	17 97       	sbiw	r26, 0x07	; 7
    148e:	01 96       	adiw	r24, 0x01	; 1
    1490:	17 96       	adiw	r26, 0x07	; 7
    1492:	9c 93       	st	X, r25
    1494:	8e 93       	st	-X, r24
    1496:	16 97       	sbiw	r26, 0x06	; 6
    1498:	ce 01       	movw	r24, r28
    149a:	df 91       	pop	r29
    149c:	cf 91       	pop	r28
    149e:	1f 91       	pop	r17
    14a0:	0f 91       	pop	r16
    14a2:	08 95       	ret

000014a4 <__ultoa_invert>:
    14a4:	fa 01       	movw	r30, r20
    14a6:	aa 27       	eor	r26, r26
    14a8:	28 30       	cpi	r18, 0x08	; 8
    14aa:	51 f1       	breq	.+84     	; 0x1500 <__ultoa_invert+0x5c>
    14ac:	20 31       	cpi	r18, 0x10	; 16
    14ae:	81 f1       	breq	.+96     	; 0x1510 <__ultoa_invert+0x6c>
    14b0:	e8 94       	clt
    14b2:	6f 93       	push	r22
    14b4:	6e 7f       	andi	r22, 0xFE	; 254
    14b6:	6e 5f       	subi	r22, 0xFE	; 254
    14b8:	7f 4f       	sbci	r23, 0xFF	; 255
    14ba:	8f 4f       	sbci	r24, 0xFF	; 255
    14bc:	9f 4f       	sbci	r25, 0xFF	; 255
    14be:	af 4f       	sbci	r26, 0xFF	; 255
    14c0:	b1 e0       	ldi	r27, 0x01	; 1
    14c2:	3e d0       	rcall	.+124    	; 0x1540 <__ultoa_invert+0x9c>
    14c4:	b4 e0       	ldi	r27, 0x04	; 4
    14c6:	3c d0       	rcall	.+120    	; 0x1540 <__ultoa_invert+0x9c>
    14c8:	67 0f       	add	r22, r23
    14ca:	78 1f       	adc	r23, r24
    14cc:	89 1f       	adc	r24, r25
    14ce:	9a 1f       	adc	r25, r26
    14d0:	a1 1d       	adc	r26, r1
    14d2:	68 0f       	add	r22, r24
    14d4:	79 1f       	adc	r23, r25
    14d6:	8a 1f       	adc	r24, r26
    14d8:	91 1d       	adc	r25, r1
    14da:	a1 1d       	adc	r26, r1
    14dc:	6a 0f       	add	r22, r26
    14de:	71 1d       	adc	r23, r1
    14e0:	81 1d       	adc	r24, r1
    14e2:	91 1d       	adc	r25, r1
    14e4:	a1 1d       	adc	r26, r1
    14e6:	20 d0       	rcall	.+64     	; 0x1528 <__ultoa_invert+0x84>
    14e8:	09 f4       	brne	.+2      	; 0x14ec <__ultoa_invert+0x48>
    14ea:	68 94       	set
    14ec:	3f 91       	pop	r19
    14ee:	2a e0       	ldi	r18, 0x0A	; 10
    14f0:	26 9f       	mul	r18, r22
    14f2:	11 24       	eor	r1, r1
    14f4:	30 19       	sub	r19, r0
    14f6:	30 5d       	subi	r19, 0xD0	; 208
    14f8:	31 93       	st	Z+, r19
    14fa:	de f6       	brtc	.-74     	; 0x14b2 <__ultoa_invert+0xe>
    14fc:	cf 01       	movw	r24, r30
    14fe:	08 95       	ret
    1500:	46 2f       	mov	r20, r22
    1502:	47 70       	andi	r20, 0x07	; 7
    1504:	40 5d       	subi	r20, 0xD0	; 208
    1506:	41 93       	st	Z+, r20
    1508:	b3 e0       	ldi	r27, 0x03	; 3
    150a:	0f d0       	rcall	.+30     	; 0x152a <__ultoa_invert+0x86>
    150c:	c9 f7       	brne	.-14     	; 0x1500 <__ultoa_invert+0x5c>
    150e:	f6 cf       	rjmp	.-20     	; 0x14fc <__ultoa_invert+0x58>
    1510:	46 2f       	mov	r20, r22
    1512:	4f 70       	andi	r20, 0x0F	; 15
    1514:	40 5d       	subi	r20, 0xD0	; 208
    1516:	4a 33       	cpi	r20, 0x3A	; 58
    1518:	18 f0       	brcs	.+6      	; 0x1520 <__ultoa_invert+0x7c>
    151a:	49 5d       	subi	r20, 0xD9	; 217
    151c:	31 fd       	sbrc	r19, 1
    151e:	40 52       	subi	r20, 0x20	; 32
    1520:	41 93       	st	Z+, r20
    1522:	02 d0       	rcall	.+4      	; 0x1528 <__ultoa_invert+0x84>
    1524:	a9 f7       	brne	.-22     	; 0x1510 <__ultoa_invert+0x6c>
    1526:	ea cf       	rjmp	.-44     	; 0x14fc <__ultoa_invert+0x58>
    1528:	b4 e0       	ldi	r27, 0x04	; 4
    152a:	a6 95       	lsr	r26
    152c:	97 95       	ror	r25
    152e:	87 95       	ror	r24
    1530:	77 95       	ror	r23
    1532:	67 95       	ror	r22
    1534:	ba 95       	dec	r27
    1536:	c9 f7       	brne	.-14     	; 0x152a <__ultoa_invert+0x86>
    1538:	00 97       	sbiw	r24, 0x00	; 0
    153a:	61 05       	cpc	r22, r1
    153c:	71 05       	cpc	r23, r1
    153e:	08 95       	ret
    1540:	9b 01       	movw	r18, r22
    1542:	ac 01       	movw	r20, r24
    1544:	0a 2e       	mov	r0, r26
    1546:	06 94       	lsr	r0
    1548:	57 95       	ror	r21
    154a:	47 95       	ror	r20
    154c:	37 95       	ror	r19
    154e:	27 95       	ror	r18
    1550:	ba 95       	dec	r27
    1552:	c9 f7       	brne	.-14     	; 0x1546 <__ultoa_invert+0xa2>
    1554:	62 0f       	add	r22, r18
    1556:	73 1f       	adc	r23, r19
    1558:	84 1f       	adc	r24, r20
    155a:	95 1f       	adc	r25, r21
    155c:	a0 1d       	adc	r26, r0
    155e:	08 95       	ret

00001560 <__prologue_saves__>:
    1560:	2f 92       	push	r2
    1562:	3f 92       	push	r3
    1564:	4f 92       	push	r4
    1566:	5f 92       	push	r5
    1568:	6f 92       	push	r6
    156a:	7f 92       	push	r7
    156c:	8f 92       	push	r8
    156e:	9f 92       	push	r9
    1570:	af 92       	push	r10
    1572:	bf 92       	push	r11
    1574:	cf 92       	push	r12
    1576:	df 92       	push	r13
    1578:	ef 92       	push	r14
    157a:	ff 92       	push	r15
    157c:	0f 93       	push	r16
    157e:	1f 93       	push	r17
    1580:	cf 93       	push	r28
    1582:	df 93       	push	r29
    1584:	cd b7       	in	r28, 0x3d	; 61
    1586:	de b7       	in	r29, 0x3e	; 62
    1588:	ca 1b       	sub	r28, r26
    158a:	db 0b       	sbc	r29, r27
    158c:	0f b6       	in	r0, 0x3f	; 63
    158e:	f8 94       	cli
    1590:	de bf       	out	0x3e, r29	; 62
    1592:	0f be       	out	0x3f, r0	; 63
    1594:	cd bf       	out	0x3d, r28	; 61
    1596:	09 94       	ijmp

00001598 <__epilogue_restores__>:
    1598:	2a 88       	ldd	r2, Y+18	; 0x12
    159a:	39 88       	ldd	r3, Y+17	; 0x11
    159c:	48 88       	ldd	r4, Y+16	; 0x10
    159e:	5f 84       	ldd	r5, Y+15	; 0x0f
    15a0:	6e 84       	ldd	r6, Y+14	; 0x0e
    15a2:	7d 84       	ldd	r7, Y+13	; 0x0d
    15a4:	8c 84       	ldd	r8, Y+12	; 0x0c
    15a6:	9b 84       	ldd	r9, Y+11	; 0x0b
    15a8:	aa 84       	ldd	r10, Y+10	; 0x0a
    15aa:	b9 84       	ldd	r11, Y+9	; 0x09
    15ac:	c8 84       	ldd	r12, Y+8	; 0x08
    15ae:	df 80       	ldd	r13, Y+7	; 0x07
    15b0:	ee 80       	ldd	r14, Y+6	; 0x06
    15b2:	fd 80       	ldd	r15, Y+5	; 0x05
    15b4:	0c 81       	ldd	r16, Y+4	; 0x04
    15b6:	1b 81       	ldd	r17, Y+3	; 0x03
    15b8:	aa 81       	ldd	r26, Y+2	; 0x02
    15ba:	b9 81       	ldd	r27, Y+1	; 0x01
    15bc:	ce 0f       	add	r28, r30
    15be:	d1 1d       	adc	r29, r1
    15c0:	0f b6       	in	r0, 0x3f	; 63
    15c2:	f8 94       	cli
    15c4:	de bf       	out	0x3e, r29	; 62
    15c6:	0f be       	out	0x3f, r0	; 63
    15c8:	cd bf       	out	0x3d, r28	; 61
    15ca:	ed 01       	movw	r28, r26
    15cc:	08 95       	ret

000015ce <_exit>:
    15ce:	f8 94       	cli

000015d0 <__stop_program>:
    15d0:	ff cf       	rjmp	.-2      	; 0x15d0 <__stop_program>
